ARM Linker, 5.03 [Build 76] [MDK-ARM Professional]

==============================================================================

Section Cross References

    stm32f10x_adc.o(i.ADC_DeInit) refers to stm32f10x_rcc.o(i.RCC_APB2PeriphResetCmd) for RCC_APB2PeriphResetCmd
    stm32f10x_bkp.o(i.BKP_DeInit) refers to stm32f10x_rcc.o(i.RCC_BackupResetCmd) for RCC_BackupResetCmd
    stm32f10x_can.o(i.CAN_DeInit) refers to stm32f10x_rcc.o(i.RCC_APB1PeriphResetCmd) for RCC_APB1PeriphResetCmd
    stm32f10x_can.o(i.CAN_GetITStatus) refers to stm32f10x_can.o(i.CheckITStatus) for CheckITStatus
    stm32f10x_cec.o(i.CEC_DeInit) refers to stm32f10x_rcc.o(i.RCC_APB1PeriphResetCmd) for RCC_APB1PeriphResetCmd
    stm32f10x_dac.o(i.DAC_DeInit) refers to stm32f10x_rcc.o(i.RCC_APB1PeriphResetCmd) for RCC_APB1PeriphResetCmd
    stm32f10x_flash.o(i.FLASH_EnableWriteProtection) refers to stm32f10x_flash.o(i.FLASH_WaitForLastOperation) for FLASH_WaitForLastOperation
    stm32f10x_flash.o(i.FLASH_EraseAllBank1Pages) refers to stm32f10x_flash.o(i.FLASH_WaitForLastBank1Operation) for FLASH_WaitForLastBank1Operation
    stm32f10x_flash.o(i.FLASH_EraseAllPages) refers to stm32f10x_flash.o(i.FLASH_WaitForLastOperation) for FLASH_WaitForLastOperation
    stm32f10x_flash.o(i.FLASH_EraseOptionBytes) refers to stm32f10x_flash.o(i.FLASH_GetReadOutProtectionStatus) for FLASH_GetReadOutProtectionStatus
    stm32f10x_flash.o(i.FLASH_EraseOptionBytes) refers to stm32f10x_flash.o(i.FLASH_WaitForLastOperation) for FLASH_WaitForLastOperation
    stm32f10x_flash.o(i.FLASH_ErasePage) refers to stm32f10x_flash.o(i.FLASH_WaitForLastOperation) for FLASH_WaitForLastOperation
    stm32f10x_flash.o(i.FLASH_ProgramHalfWord) refers to stm32f10x_flash.o(i.FLASH_WaitForLastOperation) for FLASH_WaitForLastOperation
    stm32f10x_flash.o(i.FLASH_ProgramOptionByteData) refers to stm32f10x_flash.o(i.FLASH_WaitForLastOperation) for FLASH_WaitForLastOperation
    stm32f10x_flash.o(i.FLASH_ProgramWord) refers to stm32f10x_flash.o(i.FLASH_WaitForLastOperation) for FLASH_WaitForLastOperation
    stm32f10x_flash.o(i.FLASH_ReadOutProtection) refers to stm32f10x_flash.o(i.FLASH_WaitForLastOperation) for FLASH_WaitForLastOperation
    stm32f10x_flash.o(i.FLASH_UserOptionByteConfig) refers to stm32f10x_flash.o(i.FLASH_WaitForLastOperation) for FLASH_WaitForLastOperation
    stm32f10x_flash.o(i.FLASH_WaitForLastBank1Operation) refers to stm32f10x_flash.o(i.FLASH_GetBank1Status) for FLASH_GetBank1Status
    stm32f10x_flash.o(i.FLASH_WaitForLastOperation) refers to stm32f10x_flash.o(i.FLASH_GetBank1Status) for FLASH_GetBank1Status
    stm32f10x_gpio.o(i.GPIO_AFIODeInit) refers to stm32f10x_rcc.o(i.RCC_APB2PeriphResetCmd) for RCC_APB2PeriphResetCmd
    stm32f10x_gpio.o(i.GPIO_DeInit) refers to stm32f10x_rcc.o(i.RCC_APB2PeriphResetCmd) for RCC_APB2PeriphResetCmd
    stm32f10x_i2c.o(i.I2C_DeInit) refers to stm32f10x_rcc.o(i.RCC_APB1PeriphResetCmd) for RCC_APB1PeriphResetCmd
    stm32f10x_i2c.o(i.I2C_Init) refers to stm32f10x_rcc.o(i.RCC_GetClocksFreq) for RCC_GetClocksFreq
    stm32f10x_pwr.o(i.PWR_DeInit) refers to stm32f10x_rcc.o(i.RCC_APB1PeriphResetCmd) for RCC_APB1PeriphResetCmd
    stm32f10x_rcc.o(i.RCC_GetClocksFreq) refers to stm32f10x_rcc.o(.data) for .data
    stm32f10x_rcc.o(i.RCC_WaitForHSEStartUp) refers to stm32f10x_rcc.o(i.RCC_GetFlagStatus) for RCC_GetFlagStatus
    stm32f10x_rtc.o(i.RTC_SetAlarm) refers to stm32f10x_rtc.o(i.RTC_EnterConfigMode) for RTC_EnterConfigMode
    stm32f10x_rtc.o(i.RTC_SetAlarm) refers to stm32f10x_rtc.o(i.RTC_ExitConfigMode) for RTC_ExitConfigMode
    stm32f10x_rtc.o(i.RTC_SetCounter) refers to stm32f10x_rtc.o(i.RTC_EnterConfigMode) for RTC_EnterConfigMode
    stm32f10x_rtc.o(i.RTC_SetCounter) refers to stm32f10x_rtc.o(i.RTC_ExitConfigMode) for RTC_ExitConfigMode
    stm32f10x_rtc.o(i.RTC_SetPrescaler) refers to stm32f10x_rtc.o(i.RTC_EnterConfigMode) for RTC_EnterConfigMode
    stm32f10x_rtc.o(i.RTC_SetPrescaler) refers to stm32f10x_rtc.o(i.RTC_ExitConfigMode) for RTC_ExitConfigMode
    stm32f10x_spi.o(i.I2S_Init) refers to stm32f10x_rcc.o(i.RCC_GetClocksFreq) for RCC_GetClocksFreq
    stm32f10x_spi.o(i.SPI_I2S_DeInit) refers to stm32f10x_rcc.o(i.RCC_APB2PeriphResetCmd) for RCC_APB2PeriphResetCmd
    stm32f10x_spi.o(i.SPI_I2S_DeInit) refers to stm32f10x_rcc.o(i.RCC_APB1PeriphResetCmd) for RCC_APB1PeriphResetCmd
    stm32f10x_tim.o(i.TIM_DeInit) refers to stm32f10x_rcc.o(i.RCC_APB1PeriphResetCmd) for RCC_APB1PeriphResetCmd
    stm32f10x_tim.o(i.TIM_DeInit) refers to stm32f10x_rcc.o(i.RCC_APB2PeriphResetCmd) for RCC_APB2PeriphResetCmd
    stm32f10x_tim.o(i.TIM_ETRClockMode1Config) refers to stm32f10x_tim.o(i.TIM_ETRConfig) for TIM_ETRConfig
    stm32f10x_tim.o(i.TIM_ETRClockMode2Config) refers to stm32f10x_tim.o(i.TIM_ETRConfig) for TIM_ETRConfig
    stm32f10x_tim.o(i.TIM_ICInit) refers to stm32f10x_tim.o(i.TI1_Config) for TI1_Config
    stm32f10x_tim.o(i.TIM_ICInit) refers to stm32f10x_tim.o(i.TIM_SetIC1Prescaler) for TIM_SetIC1Prescaler
    stm32f10x_tim.o(i.TIM_ICInit) refers to stm32f10x_tim.o(i.TI2_Config) for TI2_Config
    stm32f10x_tim.o(i.TIM_ICInit) refers to stm32f10x_tim.o(i.TIM_SetIC2Prescaler) for TIM_SetIC2Prescaler
    stm32f10x_tim.o(i.TIM_ICInit) refers to stm32f10x_tim.o(i.TIM_SetIC3Prescaler) for TIM_SetIC3Prescaler
    stm32f10x_tim.o(i.TIM_ICInit) refers to stm32f10x_tim.o(i.TIM_SetIC4Prescaler) for TIM_SetIC4Prescaler
    stm32f10x_tim.o(i.TIM_ITRxExternalClockConfig) refers to stm32f10x_tim.o(i.TIM_SelectInputTrigger) for TIM_SelectInputTrigger
    stm32f10x_tim.o(i.TIM_PWMIConfig) refers to stm32f10x_tim.o(i.TI2_Config) for TI2_Config
    stm32f10x_tim.o(i.TIM_PWMIConfig) refers to stm32f10x_tim.o(i.TIM_SetIC2Prescaler) for TIM_SetIC2Prescaler
    stm32f10x_tim.o(i.TIM_PWMIConfig) refers to stm32f10x_tim.o(i.TI1_Config) for TI1_Config
    stm32f10x_tim.o(i.TIM_PWMIConfig) refers to stm32f10x_tim.o(i.TIM_SetIC1Prescaler) for TIM_SetIC1Prescaler
    stm32f10x_tim.o(i.TIM_TIxExternalClockConfig) refers to stm32f10x_tim.o(i.TI1_Config) for TI1_Config
    stm32f10x_tim.o(i.TIM_TIxExternalClockConfig) refers to stm32f10x_tim.o(i.TIM_SelectInputTrigger) for TIM_SelectInputTrigger
    stm32f10x_tim.o(i.TIM_TIxExternalClockConfig) refers to stm32f10x_tim.o(i.TI2_Config) for TI2_Config
    stm32f10x_usart.o(i.USART_DeInit) refers to stm32f10x_rcc.o(i.RCC_APB2PeriphResetCmd) for RCC_APB2PeriphResetCmd
    stm32f10x_usart.o(i.USART_DeInit) refers to stm32f10x_rcc.o(i.RCC_APB1PeriphResetCmd) for RCC_APB1PeriphResetCmd
    stm32f10x_usart.o(i.USART_Init) refers to stm32f10x_rcc.o(i.RCC_GetClocksFreq) for RCC_GetClocksFreq
    stm32f10x_wwdg.o(i.WWDG_DeInit) refers to stm32f10x_rcc.o(i.RCC_APB1PeriphResetCmd) for RCC_APB1PeriphResetCmd
    system_stm32f10x.o(i.SystemCoreClockUpdate) refers to system_stm32f10x.o(.data) for .data
    system_stm32f10x.o(i.SystemInit) refers to system_stm32f10x.o(i.SetSysClockTo36) for SetSysClockTo36
    startup_stm32f10x_md.o(STACK) refers (Special) to heapauxi.o(.text) for __use_two_region_memory
    startup_stm32f10x_md.o(HEAP) refers (Special) to heapauxi.o(.text) for __use_two_region_memory
    startup_stm32f10x_md.o(RESET) refers (Special) to heapauxi.o(.text) for __use_two_region_memory
    startup_stm32f10x_md.o(RESET) refers to startup_stm32f10x_md.o(STACK) for __initial_sp
    startup_stm32f10x_md.o(RESET) refers to startup_stm32f10x_md.o(.text) for Reset_Handler
    startup_stm32f10x_md.o(RESET) refers to kernal.o(i.NMI_Handler) for NMI_Handler
    startup_stm32f10x_md.o(RESET) refers to kernal.o(i.HardFault_Handler) for HardFault_Handler
    startup_stm32f10x_md.o(RESET) refers to kernal.o(i.MemManage_Handler) for MemManage_Handler
    startup_stm32f10x_md.o(RESET) refers to kernal.o(i.BusFault_Handler) for BusFault_Handler
    startup_stm32f10x_md.o(RESET) refers to kernal.o(i.UsageFault_Handler) for UsageFault_Handler
    startup_stm32f10x_md.o(RESET) refers to kernal.o(i.SVC_Handler) for SVC_Handler
    startup_stm32f10x_md.o(RESET) refers to kernal.o(i.DebugMon_Handler) for DebugMon_Handler
    startup_stm32f10x_md.o(RESET) refers to kernal.o(i.PendSV_Handler) for PendSV_Handler
    startup_stm32f10x_md.o(RESET) refers to kernal.o(i.SysTick_Handler) for SysTick_Handler
    startup_stm32f10x_md.o(RESET) refers to rtc.o(i.RTC_IRQHandler) for RTC_IRQHandler
    startup_stm32f10x_md.o(RESET) refers to timer.o(i.TIM2_IRQHandler) for TIM2_IRQHandler
    startup_stm32f10x_md.o(RESET) refers to serial.o(i.USART1_IRQHandler) for USART1_IRQHandler
    startup_stm32f10x_md.o(RESET) refers to serial.o(i.USART2_IRQHandler) for USART2_IRQHandler
    startup_stm32f10x_md.o(RESET) refers to serial.o(i.USART3_IRQHandler) for USART3_IRQHandler
    startup_stm32f10x_md.o(.text) refers (Special) to heapauxi.o(.text) for __use_two_region_memory
    startup_stm32f10x_md.o(.text) refers to system_stm32f10x.o(i.SystemInit) for SystemInit
    startup_stm32f10x_md.o(.text) refers to __main.o(!!!main) for __main
    startup_stm32f10x_md.o(.text) refers to startup_stm32f10x_md.o(HEAP) for Heap_Mem
    startup_stm32f10x_md.o(.text) refers to startup_stm32f10x_md.o(STACK) for Stack_Mem
    kernal.o(i.DelayMs) refers to kernal.o(.data) for .data
    kernal.o(i.DelayMs_Sft) refers to kernal.o(i.DelayUs_Sft) for DelayUs_Sft
    kernal.o(i.EnterException) refers to _printf_percent.o(.ARM.Collect$$_printf_percent$$00000000) for _printf_percent
    kernal.o(i.EnterException) refers to _printf_x.o(.ARM.Collect$$_printf_percent$$0000000C) for _printf_x
    kernal.o(i.EnterException) refers to _printf_hex_int.o(.text) for _printf_longlong_hex
    kernal.o(i.EnterException) refers to noretval__2printf.o(.text) for __2printf
    kernal.o(i.EnterException) refers to kernal.o(i.DelayMs_Sft) for DelayMs_Sft
    kernal.o(i.EnterException) refers to kernal.o(i.NVIC_SystemReset) for NVIC_SystemReset
    kernal.o(i.GetSecondOfWeek) refers to kernal.o(.data) for .data
    kernal.o(i.GetTickCount) refers to kernal.o(.data) for .data
    kernal.o(i.HardFault_Handler) refers to kernal.o(i.NVIC_SystemReset) for NVIC_SystemReset
    kernal.o(i.OsInit) refers to kernal.o(i.RCC_Configuration) for RCC_Configuration
    kernal.o(i.OsInit) refers to system_stm32f10x.o(.data) for SystemCoreClock
    kernal.o(i.OsInit) refers to kernal.o(.data) for .data
    kernal.o(i.RCC_Configuration) refers to stm32f10x_rcc.o(i.RCC_DeInit) for RCC_DeInit
    kernal.o(i.RCC_Configuration) refers to stm32f10x_rcc.o(i.RCC_HSEConfig) for RCC_HSEConfig
    kernal.o(i.RCC_Configuration) refers to stm32f10x_rcc.o(i.RCC_WaitForHSEStartUp) for RCC_WaitForHSEStartUp
    kernal.o(i.RCC_Configuration) refers to stm32f10x_rcc.o(i.RCC_HCLKConfig) for RCC_HCLKConfig
    kernal.o(i.RCC_Configuration) refers to stm32f10x_rcc.o(i.RCC_PCLK2Config) for RCC_PCLK2Config
    kernal.o(i.RCC_Configuration) refers to stm32f10x_rcc.o(i.RCC_PCLK1Config) for RCC_PCLK1Config
    kernal.o(i.RCC_Configuration) refers to stm32f10x_rcc.o(i.RCC_ADCCLKConfig) for RCC_ADCCLKConfig
    kernal.o(i.RCC_Configuration) refers to stm32f10x_flash.o(i.FLASH_SetLatency) for FLASH_SetLatency
    kernal.o(i.RCC_Configuration) refers to stm32f10x_flash.o(i.FLASH_PrefetchBufferCmd) for FLASH_PrefetchBufferCmd
    kernal.o(i.RCC_Configuration) refers to stm32f10x_rcc.o(i.RCC_PLLConfig) for RCC_PLLConfig
    kernal.o(i.RCC_Configuration) refers to stm32f10x_rcc.o(i.RCC_PLLCmd) for RCC_PLLCmd
    kernal.o(i.RCC_Configuration) refers to stm32f10x_rcc.o(i.RCC_GetFlagStatus) for RCC_GetFlagStatus
    kernal.o(i.RCC_Configuration) refers to stm32f10x_rcc.o(i.RCC_SYSCLKConfig) for RCC_SYSCLKConfig
    kernal.o(i.RCC_Configuration) refers to stm32f10x_rcc.o(i.RCC_GetSYSCLKSource) for RCC_GetSYSCLKSource
    kernal.o(i.RCC_Configuration) refers to stm32f10x_rcc.o(i.RCC_APB2PeriphClockCmd) for RCC_APB2PeriphClockCmd
    kernal.o(i.RCC_Configuration) refers to stm32f10x_rcc.o(i.RCC_AHBPeriphClockCmd) for RCC_AHBPeriphClockCmd
    kernal.o(i.SetSecondOfWeek) refers to kernal.o(.data) for .data
    kernal.o(i.SysTick_Handler) refers to kernal.o(.data) for .data
    main.o(i.BoardInit) refers to serial.o(i.UartInit) for UartInit
    main.o(i.BoardInit) refers to serial.o(i.UartCreate) for UartCreate
    main.o(i.BoardInit) refers to serial.o(i.UartOpen) for UartOpen
    main.o(i.BoardInit) refers to led.o(i.LedInit) for LedInit
    main.o(i.BoardInit) refers to kernal.o(i.DelayMs_Sft) for DelayMs_Sft
    main.o(i.BoardInit) refers to led.o(i.LedOn) for LedOn
    main.o(i.BoardInit) refers to rtc.o(i.RTC_Init) for RTC_Init
    main.o(i.BoardInit) refers to adc.o(i.AdcInit) for AdcInit
    main.o(i.main) refers to kernal.o(i.OsInit) for OsInit
    main.o(i.main) refers to main.o(i.BoardInit) for BoardInit
    main.o(i.main) refers to testdtu.o(i.TestDtu) for TestDtu
    protocol.o(i.HardGenCrc32) refers to stm32f10x_crc.o(i.CRC_ResetDR) for CRC_ResetDR
    protocol.o(i.HardGenCrc32) refers to stm32f10x_crc.o(i.CRC_CalcBlockCRC) for CRC_CalcBlockCRC
    testled.o(i.TestLed) refers to led.o(i.LedInit) for LedInit
    testled.o(i.TestLed) refers to kernal.o(i.GetTickCount) for GetTickCount
    testled.o(i.TestLed) refers to led.o(i.LedOn) for LedOn
    testled.o(i.TestLed) refers to led.o(i.LedOff) for LedOff
    testtimer.o(i.TestTimer) refers to led.o(i.LedInit) for LedInit
    testtimer.o(i.TestTimer) refers to timer.o(i.TIM_Create) for TIM_Create
    testtimer.o(i.TestTimer) refers to led.o(i.LedOn) for LedOn
    testtimer.o(i.TestTimer) refers to timer.o(i.SetTimer) for SetTimer
    testtimer.o(i.TestTimer) refers to timer.o(i.TIM_Open) for TIM_Open
    testtimer.o(i.TestTimer) refers to timer.o(i.GetTimer) for GetTimer
    testtimer.o(i.TestTimer) refers to led.o(i.LedOff) for LedOff
    testuart.o(i.TestCrc) refers to _printf_percent.o(.ARM.Collect$$_printf_percent$$00000000) for _printf_percent
    testuart.o(i.TestCrc) refers to _printf_x.o(.ARM.Collect$$_printf_percent$$0000000C) for _printf_x
    testuart.o(i.TestCrc) refers to _printf_hex_int.o(.text) for _printf_longlong_hex
    testuart.o(i.TestCrc) refers to serial.o(i.UartInit) for UartInit
    testuart.o(i.TestCrc) refers to serial.o(i.UartCreate) for UartCreate
    testuart.o(i.TestCrc) refers to serial.o(i.UartOpen) for UartOpen
    testuart.o(i.TestCrc) refers to stm32f10x_rcc.o(i.RCC_AHBPeriphClockCmd) for RCC_AHBPeriphClockCmd
    testuart.o(i.TestCrc) refers to protocol.o(i.GetQueueLength) for GetQueueLength
    testuart.o(i.TestCrc) refers to kernal.o(i.GetTickCount) for GetTickCount
    testuart.o(i.TestCrc) refers to serial.o(i.GetUartReceiveTime) for GetUartReceiveTime
    testuart.o(i.TestCrc) refers to serial.o(i.ReadUsartData) for ReadUsartData
    testuart.o(i.TestCrc) refers to protocol.o(i.HardGenCrc32) for HardGenCrc32
    testuart.o(i.TestCrc) refers to noretval__2printf.o(.text) for __2printf
    testuart.o(i.TestCrc) refers to protocol.o(i.SoftGenCrc32) for SoftGenCrc32
    testuart.o(i.TestCrc) refers to serial.o(.data) for pUart1QueueInfo
    testuart.o(i.TestUart1) refers to serial.o(i.UartInit) for UartInit
    testuart.o(i.TestUart1) refers to serial.o(i.UartCreate) for UartCreate
    testuart.o(i.TestUart1) refers to serial.o(i.UartOpen) for UartOpen
    testuart.o(i.TestUart1) refers to protocol.o(i.GetQueueLength) for GetQueueLength
    testuart.o(i.TestUart1) refers to kernal.o(i.GetTickCount) for GetTickCount
    testuart.o(i.TestUart1) refers to serial.o(i.GetUartReceiveTime) for GetUartReceiveTime
    testuart.o(i.TestUart1) refers to serial.o(i.ReadUsartData) for ReadUsartData
    testuart.o(i.TestUart1) refers to serial.o(i.UsartSend) for UsartSend
    testuart.o(i.TestUart1) refers to serial.o(.data) for pUart1QueueInfo
    testuart.o(i.TestUart1Ex) refers to serial.o(i.UartInit) for UartInit
    testuart.o(i.TestUart1Ex) refers to serial.o(i.UartCreate) for UartCreate
    testuart.o(i.TestUart1Ex) refers to serial.o(i.UartOpen) for UartOpen
    testuart.o(i.TestUart1Ex) refers to dtu.o(i.DtuInit) for DtuInit
    testuart.o(i.TestUart1Ex) refers to protocol.o(i.GetQueueLength) for GetQueueLength
    testuart.o(i.TestUart1Ex) refers to kernal.o(i.GetTickCount) for GetTickCount
    testuart.o(i.TestUart1Ex) refers to serial.o(i.GetUartReceiveTime) for GetUartReceiveTime
    testuart.o(i.TestUart1Ex) refers to serial.o(i.ReadUsartData) for ReadUsartData
    testuart.o(i.TestUart1Ex) refers to serial.o(i.UsartSend) for UsartSend
    testuart.o(i.TestUart1Ex) refers to serial.o(.data) for pUart1QueueInfo
    testuart.o(i.TestUart1Timer) refers to serial.o(i.UartInit) for UartInit
    testuart.o(i.TestUart1Timer) refers to serial.o(i.UartCreate) for UartCreate
    testuart.o(i.TestUart1Timer) refers to serial.o(i.UartOpen) for UartOpen
    testuart.o(i.TestUart1Timer) refers to noretval__2printf.o(.text) for __2printf
    testuart.o(i.TestUart1Timer) refers to kernal.o(i.DelayMs) for DelayMs
    testuart.o(i.TestUart2) refers to serial.o(i.UartInit) for UartInit
    testuart.o(i.TestUart2) refers to serial.o(i.UartCreate) for UartCreate
    testuart.o(i.TestUart2) refers to serial.o(i.UartOpen) for UartOpen
    testuart.o(i.TestUart2) refers to protocol.o(i.GetQueueLength) for GetQueueLength
    testuart.o(i.TestUart2) refers to kernal.o(i.GetTickCount) for GetTickCount
    testuart.o(i.TestUart2) refers to serial.o(i.GetUartReceiveTime) for GetUartReceiveTime
    testuart.o(i.TestUart2) refers to serial.o(i.ReadUsartData) for ReadUsartData
    testuart.o(i.TestUart2) refers to serial.o(i.UsartSend) for UsartSend
    testuart.o(i.TestUart2) refers to serial.o(.data) for pUart2QueueInfo
    testuart.o(i.TestUart2Timer) refers to serial.o(i.UartInit) for UartInit
    testuart.o(i.TestUart2Timer) refers to serial.o(i.UartCreate) for UartCreate
    testuart.o(i.TestUart2Timer) refers to serial.o(i.UartOpen) for UartOpen
    testuart.o(i.TestUart2Timer) refers to serial.o(i.UsartSend) for UsartSend
    testuart.o(i.TestUart2Timer) refers to kernal.o(i.DelayMs) for DelayMs
    testuart.o(i.TestUart3) refers to serial.o(i.UartInit) for UartInit
    testuart.o(i.TestUart3) refers to serial.o(i.UartCreate) for UartCreate
    testuart.o(i.TestUart3) refers to serial.o(i.UartOpen) for UartOpen
    testuart.o(i.TestUart3) refers to protocol.o(i.GetQueueLength) for GetQueueLength
    testuart.o(i.TestUart3) refers to kernal.o(i.GetTickCount) for GetTickCount
    testuart.o(i.TestUart3) refers to serial.o(i.GetUartReceiveTime) for GetUartReceiveTime
    testuart.o(i.TestUart3) refers to serial.o(i.ReadUsartData) for ReadUsartData
    testuart.o(i.TestUart3) refers to serial.o(i.UsartSend) for UsartSend
    testuart.o(i.TestUart3) refers to serial.o(.data) for pUart3QueueInfo
    testuart.o(i.TestUart3Timer) refers to serial.o(i.UartInit) for UartInit
    testuart.o(i.TestUart3Timer) refers to serial.o(i.UartCreate) for UartCreate
    testuart.o(i.TestUart3Timer) refers to serial.o(i.UartOpen) for UartOpen
    testuart.o(i.TestUart3Timer) refers to serial.o(i.UsartSend) for UsartSend
    testuart.o(i.TestUart3Timer) refers to kernal.o(i.DelayMs) for DelayMs
    testuart.o(i.TestUartFlash) refers to _printf_percent.o(.ARM.Collect$$_printf_percent$$00000000) for _printf_percent
    testuart.o(i.TestUartFlash) refers to _printf_s.o(.ARM.Collect$$_printf_percent$$00000014) for _printf_s
    testuart.o(i.TestUartFlash) refers to _printf_str.o(.text) for _printf_str
    testuart.o(i.TestUartFlash) refers to rt_memclr_w.o(.text) for __aeabi_memclr4
    testuart.o(i.TestUartFlash) refers to noretval__2sprintf.o(.text) for __2sprintf
    testuart.o(i.TestUartFlash) refers to stm32f10x_flash.o(i.FLASH_Unlock) for FLASH_Unlock
    testuart.o(i.TestUartFlash) refers to stm32f10x_flash.o(i.FLASH_ErasePage) for FLASH_ErasePage
    testuart.o(i.TestUartFlash) refers to kernal.o(i.DelayMs) for DelayMs
    testuart.o(i.TestUartFlash) refers to stm32f10x_flash.o(i.FLASH_ProgramWord) for FLASH_ProgramWord
    testuart.o(i.TestUartFlash) refers to stm32f10x_flash.o(i.FLASH_Lock) for FLASH_Lock
    testuart.o(i.TestUartFlash) refers to flash.o(i.FlashReadSTM32) for FlashReadSTM32
    testuart.o(i.TestUartFlash) refers to noretval__2printf.o(.text) for __2printf
    testads1248.o(i.TestAds1248) refers to _printf_percent.o(.ARM.Collect$$_printf_percent$$00000000) for _printf_percent
    testads1248.o(i.TestAds1248) refers to _printf_d.o(.ARM.Collect$$_printf_percent$$00000009) for _printf_d
    testads1248.o(i.TestAds1248) refers to _printf_dec.o(.text) for _printf_int_dec
    testads1248.o(i.TestAds1248) refers to _printf_pad.o(.text) for _printf_pre_padding
    testads1248.o(i.TestAds1248) refers to _printf_f.o(.ARM.Collect$$_printf_percent$$00000003) for _printf_f
    testads1248.o(i.TestAds1248) refers to printf1.o(x$fpl$printf1) for _printf_fp_dec
    testads1248.o(i.TestAds1248) refers to spi.o(i.SpiCreate) for SpiCreate
    testads1248.o(i.TestAds1248) refers to spi.o(i.SpiOpen) for SpiOpen
    testads1248.o(i.TestAds1248) refers to tsa5017.o(i.Tsa5017Init) for Tsa5017Init
    testads1248.o(i.TestAds1248) refers to ads1248.o(i.ADS1248_Init) for ADS1248_Init
    testads1248.o(i.TestAds1248) refers to ads1248.o(i.PT100TempProcess) for PT100TempProcess
    testads1248.o(i.TestAds1248) refers to noretval__2printf.o(.text) for __2printf
    testads1248.o(i.TestAds1248) refers to f2d.o(x$fpl$f2d) for __aeabi_f2d
    testads1248.o(i.TestAds1248) refers to kernal.o(i.DelayMs) for DelayMs
    testads1248.o(i.TestAds1248andDs18b20) refers to _printf_pad.o(.text) for _printf_pre_padding
    testads1248.o(i.TestAds1248andDs18b20) refers to _printf_percent.o(.ARM.Collect$$_printf_percent$$00000000) for _printf_percent
    testads1248.o(i.TestAds1248andDs18b20) refers to _printf_d.o(.ARM.Collect$$_printf_percent$$00000009) for _printf_d
    testads1248.o(i.TestAds1248andDs18b20) refers to _printf_f.o(.ARM.Collect$$_printf_percent$$00000003) for _printf_f
    testads1248.o(i.TestAds1248andDs18b20) refers to _printf_dec.o(.text) for _printf_int_dec
    testads1248.o(i.TestAds1248andDs18b20) refers to printf1.o(x$fpl$printf1) for _printf_fp_dec
    testads1248.o(i.TestAds1248andDs18b20) refers to spi.o(i.SpiCreate) for SpiCreate
    testads1248.o(i.TestAds1248andDs18b20) refers to spi.o(i.SpiOpen) for SpiOpen
    testads1248.o(i.TestAds1248andDs18b20) refers to tsa5017.o(i.Tsa5017Init) for Tsa5017Init
    testads1248.o(i.TestAds1248andDs18b20) refers to ads1248.o(i.ADS1248_Init) for ADS1248_Init
    testads1248.o(i.TestAds1248andDs18b20) refers to noretval__2printf.o(.text) for __2printf
    testads1248.o(i.TestAds1248andDs18b20) refers to ds18b20.o(i.DS18B20_Init) for DS18B20_Init
    testads1248.o(i.TestAds1248andDs18b20) refers to ds18b20.o(i.DS18B20_Get_Temp) for DS18B20_Get_Temp
    testads1248.o(i.TestAds1248andDs18b20) refers to ads1248.o(i.PT100TempProcess) for PT100TempProcess
    testads1248.o(i.TestAds1248andDs18b20) refers to kernal.o(i.DelayMs) for DelayMs
    testdtu.o(i.DtuConfigure) refers to _printf_percent.o(.ARM.Collect$$_printf_percent$$00000000) for _printf_percent
    testdtu.o(i.DtuConfigure) refers to _printf_s.o(.ARM.Collect$$_printf_percent$$00000014) for _printf_s
    testdtu.o(i.DtuConfigure) refers to _printf_str.o(.text) for _printf_str
    testdtu.o(i.DtuConfigure) refers to rt_memclr_w.o(.text) for __aeabi_memclr4
    testdtu.o(i.DtuConfigure) refers to strlen.o(.text) for strlen
    testdtu.o(i.DtuConfigure) refers to testdtu.o(i.SendAndWaitDtuDataProc) for SendAndWaitDtuDataProc
    testdtu.o(i.DtuConfigure) refers to noretval__2sprintf.o(.text) for __2sprintf
    testdtu.o(i.DtuConfigure) refers to serial.o(i.UsartSend) for UsartSend
    testdtu.o(i.HandleADCProc) refers to _printf_pad.o(.text) for _printf_pre_padding
    testdtu.o(i.HandleADCProc) refers to _printf_percent.o(.ARM.Collect$$_printf_percent$$00000000) for _printf_percent
    testdtu.o(i.HandleADCProc) refers to _printf_f.o(.ARM.Collect$$_printf_percent$$00000003) for _printf_f
    testdtu.o(i.HandleADCProc) refers to _printf_s.o(.ARM.Collect$$_printf_percent$$00000014) for _printf_s
    testdtu.o(i.HandleADCProc) refers to printf1.o(x$fpl$printf1) for _printf_fp_dec
    testdtu.o(i.HandleADCProc) refers to _printf_str.o(.text) for _printf_str
    testdtu.o(i.HandleADCProc) refers to rt_memclr_w.o(.text) for __aeabi_memclr4
    testdtu.o(i.HandleADCProc) refers to adc.o(i.GetAdc) for GetAdc
    testdtu.o(i.HandleADCProc) refers to dflt_clz.o(x$fpl$dfltu) for __aeabi_ui2d
    testdtu.o(i.HandleADCProc) refers to dmul.o(x$fpl$dmul) for __aeabi_dmul
    testdtu.o(i.HandleADCProc) refers to d2f.o(x$fpl$d2f) for __aeabi_d2f
    testdtu.o(i.HandleADCProc) refers to scalbnf.o(x$fpl$scalbnf) for __ARM_scalbnf
    testdtu.o(i.HandleADCProc) refers to f2d.o(x$fpl$f2d) for __aeabi_f2d
    testdtu.o(i.HandleADCProc) refers to noretval__2sprintf.o(.text) for __2sprintf
    testdtu.o(i.HandleADCProc) refers to strlen.o(.text) for strlen
    testdtu.o(i.HandleADCProc) refers to rt_memcpy_v6.o(.text) for __aeabi_memcpy
    testdtu.o(i.HandleADCProc) refers to testdtu.o(.data) for .data
    testdtu.o(i.HandleAds1248Proc) refers to _printf_pad.o(.text) for _printf_pre_padding
    testdtu.o(i.HandleAds1248Proc) refers to _printf_percent.o(.ARM.Collect$$_printf_percent$$00000000) for _printf_percent
    testdtu.o(i.HandleAds1248Proc) refers to _printf_d.o(.ARM.Collect$$_printf_percent$$00000009) for _printf_d
    testdtu.o(i.HandleAds1248Proc) refers to _printf_s.o(.ARM.Collect$$_printf_percent$$00000014) for _printf_s
    testdtu.o(i.HandleAds1248Proc) refers to _printf_dec.o(.text) for _printf_int_dec
    testdtu.o(i.HandleAds1248Proc) refers to _printf_str.o(.text) for _printf_str
    testdtu.o(i.HandleAds1248Proc) refers to _printf_f.o(.ARM.Collect$$_printf_percent$$00000003) for _printf_f
    testdtu.o(i.HandleAds1248Proc) refers to printf1.o(x$fpl$printf1) for _printf_fp_dec
    testdtu.o(i.HandleAds1248Proc) refers to rt_memclr_w.o(.text) for __aeabi_memclr4
    testdtu.o(i.HandleAds1248Proc) refers to ads1248.o(i.PT100TempProcess) for PT100TempProcess
    testdtu.o(i.HandleAds1248Proc) refers to drleqf.o(x$fpl$drleqf) for __aeabi_cdrcmple
    testdtu.o(i.HandleAds1248Proc) refers to dleqf.o(x$fpl$dleqf) for __aeabi_cdcmple
    testdtu.o(i.HandleAds1248Proc) refers to noretval__2sprintf.o(.text) for __2sprintf
    testdtu.o(i.HandleAds1248Proc) refers to strlen.o(.text) for strlen
    testdtu.o(i.HandleAds1248Proc) refers to rt_memcpy_v6.o(.text) for __aeabi_memcpy
    testdtu.o(i.HandleAds1248Proc) refers to testdtu.o(.data) for .data
    testdtu.o(i.HandleBoardInfo) refers to _printf_pad.o(.text) for _printf_pre_padding
    testdtu.o(i.HandleBoardInfo) refers to _printf_percent.o(.ARM.Collect$$_printf_percent$$00000000) for _printf_percent
    testdtu.o(i.HandleBoardInfo) refers to _printf_x.o(.ARM.Collect$$_printf_percent$$0000000C) for _printf_x
    testdtu.o(i.HandleBoardInfo) refers to _printf_s.o(.ARM.Collect$$_printf_percent$$00000014) for _printf_s
    testdtu.o(i.HandleBoardInfo) refers to _printf_hex_int.o(.text) for _printf_longlong_hex
    testdtu.o(i.HandleBoardInfo) refers to _printf_str.o(.text) for _printf_str
    testdtu.o(i.HandleBoardInfo) refers to rt_memclr_w.o(.text) for __aeabi_memclr4
    testdtu.o(i.HandleBoardInfo) refers to noretval__2sprintf.o(.text) for __2sprintf
    testdtu.o(i.HandleBoardInfo) refers to strlen.o(.text) for strlen
    testdtu.o(i.HandleBoardInfo) refers to rt_memcpy_v6.o(.text) for __aeabi_memcpy
    testdtu.o(i.HandleBoardInfo) refers to testdtu.o(.data) for .data
    testdtu.o(i.HandleCmdProc) refers to _printf_percent.o(.ARM.Collect$$_printf_percent$$00000000) for _printf_percent
    testdtu.o(i.HandleCmdProc) refers to _printf_d.o(.ARM.Collect$$_printf_percent$$00000009) for _printf_d
    testdtu.o(i.HandleCmdProc) refers to _printf_dec.o(.text) for _printf_int_dec
    testdtu.o(i.HandleCmdProc) refers to sst25vf064c.o(i.ExternFlashChipErase) for ExternFlashChipErase
    testdtu.o(i.HandleCmdProc) refers to rt_memclr_w.o(.text) for __aeabi_memclr4
    testdtu.o(i.HandleCmdProc) refers to strlen.o(.text) for strlen
    testdtu.o(i.HandleCmdProc) refers to testdtu.o(i.HandleDataPackage) for HandleDataPackage
    testdtu.o(i.HandleCmdProc) refers to stm32f10x_flash.o(i.FLASH_Unlock) for FLASH_Unlock
    testdtu.o(i.HandleCmdProc) refers to stm32f10x_flash.o(i.FLASH_ErasePage) for FLASH_ErasePage
    testdtu.o(i.HandleCmdProc) refers to kernal.o(i.DelayMs) for DelayMs
    testdtu.o(i.HandleCmdProc) refers to stm32f10x_flash.o(i.FLASH_ProgramWord) for FLASH_ProgramWord
    testdtu.o(i.HandleCmdProc) refers to stm32f10x_flash.o(i.FLASH_Lock) for FLASH_Lock
    testdtu.o(i.HandleCmdProc) refers to noretval__2sprintf.o(.text) for __2sprintf
    testdtu.o(i.HandleCmdProc) refers to serial.o(i.UartDeinit) for UartDeinit
    testdtu.o(i.HandleCmdProc) refers to testdtu.o(i.NVIC_SystemReset) for NVIC_SystemReset
    testdtu.o(i.HandleCmdProc) refers to flash.o(i.FlashInit) for FlashInit
    testdtu.o(i.HandleCmdProc) refers to flash.o(i.FlashReadSTM32) for FlashReadSTM32
    testdtu.o(i.HandleCmdProc) refers to sst25vf064c.o(i.ExternFlashPageProgram) for ExternFlashPageProgram
    testdtu.o(i.HandleCmdProc) refers to stm32f10x_rcc.o(i.RCC_APB1PeriphClockCmd) for RCC_APB1PeriphClockCmd
    testdtu.o(i.HandleCmdProc) refers to stm32f10x_pwr.o(i.PWR_BackupAccessCmd) for PWR_BackupAccessCmd
    testdtu.o(i.HandleCmdProc) refers to stm32f10x_rtc.o(i.RTC_WaitForLastTask) for RTC_WaitForLastTask
    testdtu.o(i.HandleCmdProc) refers to stm32f10x_rtc.o(i.RTC_EnterConfigMode) for RTC_EnterConfigMode
    testdtu.o(i.HandleCmdProc) refers to stm32f10x_rtc.o(i.RTC_SetPrescaler) for RTC_SetPrescaler
    testdtu.o(i.HandleCmdProc) refers to rtc.o(i.RTC_Set) for RTC_Set
    testdtu.o(i.HandleCmdProc) refers to stm32f10x_rtc.o(i.RTC_ExitConfigMode) for RTC_ExitConfigMode
    testdtu.o(i.HandleCmdProc) refers to stm32f10x_bkp.o(i.BKP_WriteBackupRegister) for BKP_WriteBackupRegister
    testdtu.o(i.HandleCmdProc) refers to rtc.o(i.RTC_Get) for RTC_Get
    testdtu.o(i.HandleCmdProc) refers to testdtu.o(.data) for .data
    testdtu.o(i.HandleDataPackage) refers to serial.o(i.UsartSend) for UsartSend
    testdtu.o(i.HandleDataPackage) refers to h1_alloc.o(.text) for malloc
    testdtu.o(i.HandleDataPackage) refers to protocol.o(i.HardGenCrc32) for HardGenCrc32
    testdtu.o(i.HandleDataPackage) refers to h1_free.o(.text) for free
    testdtu.o(i.HandleDataPackage) refers to kernal.o(i.EnterException) for EnterException
    testdtu.o(i.HandleDataPackage) refers to rt_memcpy_v6.o(.text) for __aeabi_memcpy
    testdtu.o(i.HandleDataPackage) refers to testdtu.o(.data) for .data
    testdtu.o(i.HandleModeProc) refers to _printf_pad.o(.text) for _printf_pre_padding
    testdtu.o(i.HandleModeProc) refers to _printf_percent.o(.ARM.Collect$$_printf_percent$$00000000) for _printf_percent
    testdtu.o(i.HandleModeProc) refers to _printf_d.o(.ARM.Collect$$_printf_percent$$00000009) for _printf_d
    testdtu.o(i.HandleModeProc) refers to _printf_s.o(.ARM.Collect$$_printf_percent$$00000014) for _printf_s
    testdtu.o(i.HandleModeProc) refers to _printf_dec.o(.text) for _printf_int_dec
    testdtu.o(i.HandleModeProc) refers to _printf_str.o(.text) for _printf_str
    testdtu.o(i.HandleModeProc) refers to rt_memclr_w.o(.text) for __aeabi_memclr4
    testdtu.o(i.HandleModeProc) refers to noretval__2sprintf.o(.text) for __2sprintf
    testdtu.o(i.HandleModeProc) refers to strlen.o(.text) for strlen
    testdtu.o(i.HandleModeProc) refers to rt_memcpy_v6.o(.text) for __aeabi_memcpy
    testdtu.o(i.HandleModeProc) refers to testdtu.o(.data) for .data
    testdtu.o(i.HandleRTCProc) refers to _printf_percent.o(.ARM.Collect$$_printf_percent$$00000000) for _printf_percent
    testdtu.o(i.HandleRTCProc) refers to _printf_d.o(.ARM.Collect$$_printf_percent$$00000009) for _printf_d
    testdtu.o(i.HandleRTCProc) refers to _printf_dec.o(.text) for _printf_int_dec
    testdtu.o(i.HandleRTCProc) refers to rt_memclr_w.o(.text) for __aeabi_memclr4
    testdtu.o(i.HandleRTCProc) refers to noretval__2sprintf.o(.text) for __2sprintf
    testdtu.o(i.HandleRTCProc) refers to strlen.o(.text) for strlen
    testdtu.o(i.HandleRTCProc) refers to rt_memcpy_v6.o(.text) for __aeabi_memcpy
    testdtu.o(i.HandleRTCProc) refers to rtc.o(.bss) for g_CalendarInfo
    testdtu.o(i.HandleTemperatureProc) refers to _printf_pad.o(.text) for _printf_pre_padding
    testdtu.o(i.HandleTemperatureProc) refers to _printf_percent.o(.ARM.Collect$$_printf_percent$$00000000) for _printf_percent
    testdtu.o(i.HandleTemperatureProc) refers to _printf_s.o(.ARM.Collect$$_printf_percent$$00000014) for _printf_s
    testdtu.o(i.HandleTemperatureProc) refers to _printf_str.o(.text) for _printf_str
    testdtu.o(i.HandleTemperatureProc) refers to _printf_f.o(.ARM.Collect$$_printf_percent$$00000003) for _printf_f
    testdtu.o(i.HandleTemperatureProc) refers to printf1.o(x$fpl$printf1) for _printf_fp_dec
    testdtu.o(i.HandleTemperatureProc) refers to rt_memclr_w.o(.text) for __aeabi_memclr4
    testdtu.o(i.HandleTemperatureProc) refers to ds18b20.o(i.DS18B20_Get_Temp) for DS18B20_Get_Temp
    testdtu.o(i.HandleTemperatureProc) refers to dflt_clz.o(x$fpl$dflt) for __aeabi_i2d
    testdtu.o(i.HandleTemperatureProc) refers to ddiv.o(x$fpl$ddiv) for __aeabi_ddiv
    testdtu.o(i.HandleTemperatureProc) refers to daddsub_clz.o(x$fpl$dadd) for __aeabi_dadd
    testdtu.o(i.HandleTemperatureProc) refers to d2f.o(x$fpl$d2f) for __aeabi_d2f
    testdtu.o(i.HandleTemperatureProc) refers to f2d.o(x$fpl$f2d) for __aeabi_f2d
    testdtu.o(i.HandleTemperatureProc) refers to noretval__2sprintf.o(.text) for __2sprintf
    testdtu.o(i.HandleTemperatureProc) refers to strlen.o(.text) for strlen
    testdtu.o(i.HandleTemperatureProc) refers to rt_memcpy_v6.o(.text) for __aeabi_memcpy
    testdtu.o(i.HandleTemperatureProc) refers to testdtu.o(.data) for .data
    testdtu.o(i.SendAndWaitDtuDataProc) refers to protocol.o(i.Init) for Init
    testdtu.o(i.SendAndWaitDtuDataProc) refers to serial.o(i.UsartSend) for UsartSend
    testdtu.o(i.SendAndWaitDtuDataProc) refers to kernal.o(i.GetTickCount) for GetTickCount
    testdtu.o(i.SendAndWaitDtuDataProc) refers to memcmp.o(.text) for memcmp
    testdtu.o(i.SendAndWaitDtuDataProc) refers to protocol.o(i.GetQueueLength) for GetQueueLength
    testdtu.o(i.SendAndWaitDtuDataProc) refers to serial.o(i.GetUartReceiveTime) for GetUartReceiveTime
    testdtu.o(i.SendAndWaitDtuDataProc) refers to serial.o(i.ReadUsartData) for ReadUsartData
    testdtu.o(i.SendAndWaitDtuDataProc) refers to strstr.o(.text) for strstr
    testdtu.o(i.SendAndWaitDtuDataProc) refers to kernal.o(i.DelayMs) for DelayMs
    testdtu.o(i.SendAndWaitDtuDataProc) refers to testdtu.o(i.NVIC_SystemReset) for NVIC_SystemReset
    testdtu.o(i.SendAndWaitDtuDataProc) refers to serial.o(.data) for pUart2QueueInfo
    testdtu.o(i.SendAndWaitDtuDataProc) refers to testdtu.o(.data) for .data
    testdtu.o(i.TestDtu) refers to h1_alloc.o(.text) for malloc
    testdtu.o(i.TestDtu) refers to kernal.o(i.EnterException) for EnterException
    testdtu.o(i.TestDtu) refers to serial.o(i.UartInit) for UartInit
    testdtu.o(i.TestDtu) refers to serial.o(i.UartCreate) for UartCreate
    testdtu.o(i.TestDtu) refers to serial.o(i.UartOpen) for UartOpen
    testdtu.o(i.TestDtu) refers to spi.o(i.SpiCreate) for SpiCreate
    testdtu.o(i.TestDtu) refers to spi.o(i.SpiOpen) for SpiOpen
    testdtu.o(i.TestDtu) refers to tsa5017.o(i.Tsa5017Init) for Tsa5017Init
    testdtu.o(i.TestDtu) refers to ads1248.o(i.ADS1248_Init) for ADS1248_Init
    testdtu.o(i.TestDtu) refers to sst25vf064c.o(i.SST25VF0_Init) for SST25VF0_Init
    testdtu.o(i.TestDtu) refers to sst25vf064c.o(i.ExternFlash_Init) for ExternFlash_Init
    testdtu.o(i.TestDtu) refers to dtu.o(i.DtuInit) for DtuInit
    testdtu.o(i.TestDtu) refers to ds18b20.o(i.DS18B20_Init) for DS18B20_Init
    testdtu.o(i.TestDtu) refers to ds18b20.o(i.DS18B20_Get_Temp) for DS18B20_Get_Temp
    testdtu.o(i.TestDtu) refers to testdtu.o(i.DtuConfigure) for DtuConfigure
    testdtu.o(i.TestDtu) refers to kernal.o(i.GetTickCount) for GetTickCount
    testdtu.o(i.TestDtu) refers to led.o(i.LedOn) for LedOn
    testdtu.o(i.TestDtu) refers to led.o(i.LedOff) for LedOff
    testdtu.o(i.TestDtu) refers to protocol.o(i.GetQueueLength) for GetQueueLength
    testdtu.o(i.TestDtu) refers to serial.o(i.GetUartReceiveTime) for GetUartReceiveTime
    testdtu.o(i.TestDtu) refers to serial.o(i.ReadUsartData) for ReadUsartData
    testdtu.o(i.TestDtu) refers to testdtu.o(i.HandleCmdProc) for HandleCmdProc
    testdtu.o(i.TestDtu) refers to dtu.o(i.DetectOnline) for DetectOnline
    testdtu.o(i.TestDtu) refers to rt_memclr.o(.text) for __aeabi_memclr
    testdtu.o(i.TestDtu) refers to noretval__2sprintf.o(.text) for __2sprintf
    testdtu.o(i.TestDtu) refers to strlen.o(.text) for strlen
    testdtu.o(i.TestDtu) refers to serial.o(i.UsartSend) for UsartSend
    testdtu.o(i.TestDtu) refers to testdtu.o(i.HandleRTCProc) for HandleRTCProc
    testdtu.o(i.TestDtu) refers to testdtu.o(i.HandleBoardInfo) for HandleBoardInfo
    testdtu.o(i.TestDtu) refers to testdtu.o(i.HandleModeProc) for HandleModeProc
    testdtu.o(i.TestDtu) refers to testdtu.o(i.HandleADCProc) for HandleADCProc
    testdtu.o(i.TestDtu) refers to testdtu.o(i.HandleTemperatureProc) for HandleTemperatureProc
    testdtu.o(i.TestDtu) refers to testdtu.o(i.HandleAds1248Proc) for HandleAds1248Proc
    testdtu.o(i.TestDtu) refers to testdtu.o(i.HandleDataPackage) for HandleDataPackage
    testdtu.o(i.TestDtu) refers to testdtu.o(.data) for .data
    testdtu.o(i.TestDtu) refers to serial.o(.data) for pUart2QueueInfo
    testsst25vf0.o(i.TestSST25VF0) refers to _printf_percent.o(.ARM.Collect$$_printf_percent$$00000000) for _printf_percent
    testsst25vf0.o(i.TestSST25VF0) refers to _printf_x.o(.ARM.Collect$$_printf_percent$$0000000C) for _printf_x
    testsst25vf0.o(i.TestSST25VF0) refers to _printf_hex_int.o(.text) for _printf_longlong_hex
    testsst25vf0.o(i.TestSST25VF0) refers to rt_memclr_w.o(.text) for __aeabi_memclr4
    testsst25vf0.o(i.TestSST25VF0) refers to sst25vf064c.o(i.SST25VF0_Init) for SST25VF0_Init
    testsst25vf0.o(i.TestSST25VF0) refers to sst25vf064c.o(i.ExternFlash_Init) for ExternFlash_Init
    testsst25vf0.o(i.TestSST25VF0) refers to sst25vf064c.o(i.JedecIDRead) for JedecIDRead
    testsst25vf0.o(i.TestSST25VF0) refers to noretval__2printf.o(.text) for __2printf
    testsst25vf0.o(i.TestSST25VF0) refers to sst25vf064c.o(i.ExternFlashPageProgram) for ExternFlashPageProgram
    testsst25vf0.o(i.TestSST25VF0) refers to sst25vf064c.o(i.ExternFlashHighSpeedRead) for ExternFlashHighSpeedRead
    testsst25vf0.o(i.TestSST25VF0) refers to memcmp.o(.text) for memcmp
    testsst25vf0.o(i.TestSST25VF0) refers to sst25vf064c.o(i.Read) for Read
    testsst25vf0.o(i.TestSST25VF0_Storage) refers to _printf_percent.o(.ARM.Collect$$_printf_percent$$00000000) for _printf_percent
    testsst25vf0.o(i.TestSST25VF0_Storage) refers to _printf_x.o(.ARM.Collect$$_printf_percent$$0000000C) for _printf_x
    testsst25vf0.o(i.TestSST25VF0_Storage) refers to _printf_hex_int.o(.text) for _printf_longlong_hex
    testsst25vf0.o(i.TestSST25VF0_Storage) refers to sst25vf064c.o(i.SST25VF0_Init) for SST25VF0_Init
    testsst25vf0.o(i.TestSST25VF0_Storage) refers to sst25vf064c.o(i.ExternFlash_Init) for ExternFlash_Init
    testsst25vf0.o(i.TestSST25VF0_Storage) refers to sst25vf064c.o(i.JedecIDRead) for JedecIDRead
    testsst25vf0.o(i.TestSST25VF0_Storage) refers to noretval__2printf.o(.text) for __2printf
    testsst25vf0.o(i.TestSST25VF0_Storage) refers to protocol.o(i.GetQueueLength) for GetQueueLength
    testsst25vf0.o(i.TestSST25VF0_Storage) refers to kernal.o(i.GetTickCount) for GetTickCount
    testsst25vf0.o(i.TestSST25VF0_Storage) refers to serial.o(i.GetUartReceiveTime) for GetUartReceiveTime
    testsst25vf0.o(i.TestSST25VF0_Storage) refers to serial.o(i.ReadUsartData) for ReadUsartData
    testsst25vf0.o(i.TestSST25VF0_Storage) refers to sst25vf064c.o(i.ExternFlashPageProgram) for ExternFlashPageProgram
    testsst25vf0.o(i.TestSST25VF0_Storage) refers to sst25vf064c.o(i.ExternFlashHighSpeedRead) for ExternFlashHighSpeedRead
    testsst25vf0.o(i.TestSST25VF0_Storage) refers to serial.o(i.UsartSend) for UsartSend
    testsst25vf0.o(i.TestSST25VF0_Storage) refers to sst25vf064c.o(i.ExternFlashChipErase) for ExternFlashChipErase
    testsst25vf0.o(i.TestSST25VF0_Storage) refers to serial.o(.data) for pUart1QueueInfo
    testam2305.o(i.TestAm2305) refers to _printf_percent.o(.ARM.Collect$$_printf_percent$$00000000) for _printf_percent
    testam2305.o(i.TestAm2305) refers to _printf_f.o(.ARM.Collect$$_printf_percent$$00000003) for _printf_f
    testam2305.o(i.TestAm2305) refers to printf1.o(x$fpl$printf1) for _printf_fp_dec
    testam2305.o(i.TestAm2305) refers to am2305.o(i.AM2305_Init) for AM2305_Init
    testam2305.o(i.TestAm2305) refers to serial.o(i.UartInit) for UartInit
    testam2305.o(i.TestAm2305) refers to serial.o(i.UartCreate) for UartCreate
    testam2305.o(i.TestAm2305) refers to serial.o(i.UartOpen) for UartOpen
    testam2305.o(i.TestAm2305) refers to kernal.o(i.DelayMs) for DelayMs
    testam2305.o(i.TestAm2305) refers to am2305.o(i.AM2305_Run) for AM2305_Run
    testam2305.o(i.TestAm2305) refers to am2305.o(i.GetAm2305Data) for GetAm2305Data
    testam2305.o(i.TestAm2305) refers to dflt_clz.o(x$fpl$dfltu) for __aeabi_ui2d
    testam2305.o(i.TestAm2305) refers to ddiv.o(x$fpl$ddiv) for __aeabi_ddiv
    testam2305.o(i.TestAm2305) refers to d2f.o(x$fpl$d2f) for __aeabi_d2f
    testam2305.o(i.TestAm2305) refers to f2d.o(x$fpl$f2d) for __aeabi_f2d
    testam2305.o(i.TestAm2305) refers to noretval__2printf.o(.text) for __2printf
    testrtc.o(i.TestRtc) refers to _printf_percent.o(.ARM.Collect$$_printf_percent$$00000000) for _printf_percent
    testrtc.o(i.TestRtc) refers to _printf_d.o(.ARM.Collect$$_printf_percent$$00000009) for _printf_d
    testrtc.o(i.TestRtc) refers to _printf_dec.o(.text) for _printf_int_dec
    testrtc.o(i.TestRtc) refers to _printf_pad.o(.text) for _printf_pre_padding
    testrtc.o(i.TestRtc) refers to rtc.o(i.RTC_Init) for RTC_Init
    testrtc.o(i.TestRtc) refers to rtc.o(i.RTC_Set) for RTC_Set
    testrtc.o(i.TestRtc) refers to noretval__2printf.o(.text) for __2printf
    testrtc.o(i.TestRtc) refers to kernal.o(i.DelayMs) for DelayMs
    testrtc.o(i.TestRtc) refers to rtc.o(.bss) for g_CalendarInfo
    testadc.o(i.TestAdc) refers to _printf_percent.o(.ARM.Collect$$_printf_percent$$00000000) for _printf_percent
    testadc.o(i.TestAdc) refers to _printf_f.o(.ARM.Collect$$_printf_percent$$00000003) for _printf_f
    testadc.o(i.TestAdc) refers to printf1.o(x$fpl$printf1) for _printf_fp_dec
    testadc.o(i.TestAdc) refers to adc.o(i.AdcInit) for AdcInit
    testadc.o(i.TestAdc) refers to adc.o(i.GetAdc) for GetAdc
    testadc.o(i.TestAdc) refers to dflt_clz.o(x$fpl$dfltu) for __aeabi_ui2d
    testadc.o(i.TestAdc) refers to scalbn.o(x$fpl$scalbn) for __ARM_scalbn
    testadc.o(i.TestAdc) refers to dmul.o(x$fpl$dmul) for __aeabi_dmul
    testadc.o(i.TestAdc) refers to noretval__2printf.o(.text) for __2printf
    testadc.o(i.TestAdc) refers to kernal.o(i.DelayMs) for DelayMs
    testltc2402.o(i.TestLTC2402) refers to _printf_percent.o(.ARM.Collect$$_printf_percent$$00000000) for _printf_percent
    testltc2402.o(i.TestLTC2402) refers to _printf_x.o(.ARM.Collect$$_printf_percent$$0000000C) for _printf_x
    testltc2402.o(i.TestLTC2402) refers to _printf_hex_int.o(.text) for _printf_longlong_hex
    testltc2402.o(i.TestLTC2402) refers to _printf_f.o(.ARM.Collect$$_printf_percent$$00000003) for _printf_f
    testltc2402.o(i.TestLTC2402) refers to printf1.o(x$fpl$printf1) for _printf_fp_dec
    testltc2402.o(i.TestLTC2402) refers to ltc2402.o(i.Ltc2402SoftInit) for Ltc2402SoftInit
    testltc2402.o(i.TestLTC2402) refers to ltc2402.o(i.LTC2402_TEST_EOC_Start) for LTC2402_TEST_EOC_Start
    testltc2402.o(i.TestLTC2402) refers to ltc2402.o(i.LTC2402_ReadByte) for LTC2402_ReadByte
    testltc2402.o(i.TestLTC2402) refers to dflt_clz.o(x$fpl$dfltu) for __aeabi_ui2d
    testltc2402.o(i.TestLTC2402) refers to scalbn.o(x$fpl$scalbn) for __ARM_scalbn
    testltc2402.o(i.TestLTC2402) refers to dmul.o(x$fpl$dmul) for __aeabi_dmul
    testltc2402.o(i.TestLTC2402) refers to noretval__2printf.o(.text) for __2printf
    testltc2402.o(i.TestLTC2402) refers to drleqf.o(x$fpl$drleqf) for __aeabi_cdrcmple
    testltc2402.o(i.TestLTC2402) refers to daddsub_clz.o(x$fpl$dsub) for __aeabi_dsub
    testltc2402.o(i.TestLTC2402) refers to kernal.o(i.DelayMs) for DelayMs
    testltc2402.o(i.TestLTC2402) refers to ltc2402.o(i.LTC2402_TEST_EOC_End) for LTC2402_TEST_EOC_End
    testltc2402.o(i.TestLTC2402) refers to testltc2402.o(.data) for .data
    testds18b20.o(i.TestDs18b20) refers to _printf_percent.o(.ARM.Collect$$_printf_percent$$00000000) for _printf_percent
    testds18b20.o(i.TestDs18b20) refers to _printf_d.o(.ARM.Collect$$_printf_percent$$00000009) for _printf_d
    testds18b20.o(i.TestDs18b20) refers to _printf_dec.o(.text) for _printf_int_dec
    testds18b20.o(i.TestDs18b20) refers to noretval__2printf.o(.text) for __2printf
    testds18b20.o(i.TestDs18b20) refers to ds18b20.o(i.DS18B20_Init) for DS18B20_Init
    testds18b20.o(i.TestDs18b20) refers to ds18b20.o(i.DS18B20_Get_Temp) for DS18B20_Get_Temp
    testds18b20.o(i.TestDs18b20) refers to kernal.o(i.GetTickCount) for GetTickCount
    led.o(i.LedInit) refers to stm32f10x_rcc.o(i.RCC_APB2PeriphClockCmd) for RCC_APB2PeriphClockCmd
    led.o(i.LedInit) refers to stm32f10x_gpio.o(i.GPIO_Set) for GPIO_Set
    led.o(i.LedInit) refers to stm32f10x_gpio.o(i.GPIO_ResetBits) for GPIO_ResetBits
    led.o(i.LedOff) refers to stm32f10x_gpio.o(i.GPIO_ResetBits) for GPIO_ResetBits
    led.o(i.LedOn) refers to stm32f10x_gpio.o(i.GPIO_SetBits) for GPIO_SetBits
    serial.o(i.GetUartReceiveTime) refers (Special) to use_no_semi_2.o(.text) for __use_no_semihosting
    serial.o(i.GetUartReceiveTime) refers to serial.o(.data) for .data
    serial.o(i.ReadUsartData) refers (Special) to use_no_semi_2.o(.text) for __use_no_semihosting
    serial.o(i.ReadUsartData) refers to protocol.o(i.DeleteQueue) for DeleteQueue
    serial.o(i.ReadUsartData) refers to serial.o(.data) for .data
    serial.o(i.ReadUsartDataEx) refers (Special) to use_no_semi_2.o(.text) for __use_no_semihosting
    serial.o(i.ReadUsartDataEx) refers to protocol.o(i.DeleteQueue) for DeleteQueue
    serial.o(i.ReadUsartDataEx) refers to serial.o(.data) for .data
    serial.o(i.ReadUsartDataSolod) refers (Special) to use_no_semi_2.o(.text) for __use_no_semihosting
    serial.o(i.ReadUsartDataSolod) refers to protocol.o(i.DeleteQueue) for DeleteQueue
    serial.o(i.ReadUsartDataSolod) refers to serial.o(.data) for .data
    serial.o(i.USART1_IRQHandler) refers (Special) to use_no_semi_2.o(.text) for __use_no_semihosting
    serial.o(i.USART1_IRQHandler) refers to stm32f10x_usart.o(i.USART_GetITStatus) for USART_GetITStatus
    serial.o(i.USART1_IRQHandler) refers to stm32f10x_usart.o(i.USART_ReceiveData) for USART_ReceiveData
    serial.o(i.USART1_IRQHandler) refers to protocol.o(i.AddQueue) for AddQueue
    serial.o(i.USART1_IRQHandler) refers to kernal.o(i.GetTickCount) for GetTickCount
    serial.o(i.USART1_IRQHandler) refers to serial.o(.data) for .data
    serial.o(i.USART2_IRQHandler) refers (Special) to use_no_semi_2.o(.text) for __use_no_semihosting
    serial.o(i.USART2_IRQHandler) refers to stm32f10x_usart.o(i.USART_GetITStatus) for USART_GetITStatus
    serial.o(i.USART2_IRQHandler) refers to stm32f10x_usart.o(i.USART_ReceiveData) for USART_ReceiveData
    serial.o(i.USART2_IRQHandler) refers to protocol.o(i.AddQueue) for AddQueue
    serial.o(i.USART2_IRQHandler) refers to kernal.o(i.GetTickCount) for GetTickCount
    serial.o(i.USART2_IRQHandler) refers to serial.o(.data) for .data
    serial.o(i.USART3_IRQHandler) refers (Special) to use_no_semi_2.o(.text) for __use_no_semihosting
    serial.o(i.USART3_IRQHandler) refers to stm32f10x_usart.o(i.USART_GetITStatus) for USART_GetITStatus
    serial.o(i.USART3_IRQHandler) refers to stm32f10x_usart.o(i.USART_ReceiveData) for USART_ReceiveData
    serial.o(i.USART3_IRQHandler) refers to protocol.o(i.AddQueue) for AddQueue
    serial.o(i.USART3_IRQHandler) refers to kernal.o(i.GetTickCount) for GetTickCount
    serial.o(i.USART3_IRQHandler) refers to serial.o(.data) for .data
    serial.o(i.UartClose) refers (Special) to use_no_semi_2.o(.text) for __use_no_semihosting
    serial.o(i.UartClose) refers to stm32f10x_usart.o(i.USART_Cmd) for USART_Cmd
    serial.o(i.UartCreate) refers (Special) to use_no_semi_2.o(.text) for __use_no_semihosting
    serial.o(i.UartCreate) refers to rt_memclr_w.o(.text) for __aeabi_memclr4
    serial.o(i.UartCreate) refers to stm32f10x_rcc.o(i.RCC_APB2PeriphClockCmd) for RCC_APB2PeriphClockCmd
    serial.o(i.UartCreate) refers to h1_alloc.o(.text) for malloc
    serial.o(i.UartCreate) refers to stm32f10x_rcc.o(i.RCC_APB1PeriphClockCmd) for RCC_APB1PeriphClockCmd
    serial.o(i.UartCreate) refers to kernal.o(i.EnterException) for EnterException
    serial.o(i.UartCreate) refers to stm32f10x_gpio.o(i.GPIO_Init) for GPIO_Init
    serial.o(i.UartCreate) refers to misc.o(i.NVIC_Init) for NVIC_Init
    serial.o(i.UartCreate) refers to stm32f10x_usart.o(i.USART_Init) for USART_Init
    serial.o(i.UartCreate) refers to stm32f10x_usart.o(i.USART_ITConfig) for USART_ITConfig
    serial.o(i.UartCreate) refers to serial.o(.data) for .data
    serial.o(i.UartDeinit) refers (Special) to use_no_semi_2.o(.text) for __use_no_semihosting
    serial.o(i.UartDeinit) refers to h1_free.o(.text) for free
    serial.o(i.UartDeinit) refers to stm32f10x_usart.o(i.USART_Cmd) for USART_Cmd
    serial.o(i.UartDeinit) refers to stm32f10x_usart.o(i.USART_ITConfig) for USART_ITConfig
    serial.o(i.UartDeinit) refers to serial.o(.data) for .data
    serial.o(i.UartInit) refers (Special) to use_no_semi_2.o(.text) for __use_no_semihosting
    serial.o(i.UartOpen) refers (Special) to use_no_semi_2.o(.text) for __use_no_semihosting
    serial.o(i.UartOpen) refers to stm32f10x_usart.o(i.USART_Cmd) for USART_Cmd
    serial.o(i.UsartSend) refers (Special) to use_no_semi_2.o(.text) for __use_no_semihosting
    serial.o(i.UsartSend) refers to stm32f10x_usart.o(i.USART_SendData) for USART_SendData
    serial.o(i.UsartSend) refers to stm32f10x_usart.o(i.USART_GetFlagStatus) for USART_GetFlagStatus
    serial.o(i._sys_exit) refers (Special) to use_no_semi_2.o(.text) for __use_no_semihosting
    serial.o(i._ttywrch) refers (Special) to use_no_semi_2.o(.text) for __use_no_semihosting
    serial.o(i.fputc) refers (Special) to use_no_semi_2.o(.text) for __use_no_semihosting
    serial.o(.data) refers (Special) to use_no_semi_2.o(.text) for __use_no_semihosting
    serial.o(.data) refers (Special) to use_no_semi_2.o(.text) for __use_no_semihosting
    spi.o(i.SpiClose) refers to stm32f10x_spi.o(i.SPI_Cmd) for SPI_Cmd
    spi.o(i.SpiCreate) refers to rt_memclr_w.o(.text) for __aeabi_memclr4
    spi.o(i.SpiCreate) refers to stm32f10x_rcc.o(i.RCC_APB2PeriphClockCmd) for RCC_APB2PeriphClockCmd
    spi.o(i.SpiCreate) refers to stm32f10x_rcc.o(i.RCC_APB1PeriphClockCmd) for RCC_APB1PeriphClockCmd
    spi.o(i.SpiCreate) refers to stm32f10x_gpio.o(i.GPIO_Init) for GPIO_Init
    spi.o(i.SpiCreate) refers to stm32f10x_spi.o(i.SPI_Init) for SPI_Init
    spi.o(i.SpiCreate) refers to misc.o(i.NVIC_Init) for NVIC_Init
    spi.o(i.SpiCreate) refers to stm32f10x_spi.o(i.SPI_I2S_ITConfig) for SPI_I2S_ITConfig
    spi.o(i.SpiOpen) refers to stm32f10x_spi.o(i.SPI_CalculateCRC) for SPI_CalculateCRC
    spi.o(i.SpiOpen) refers to stm32f10x_spi.o(i.SPI_Cmd) for SPI_Cmd
    spi.o(i.SpiReadWriteByte) refers to stm32f10x_spi.o(i.SPI_I2S_GetFlagStatus) for SPI_I2S_GetFlagStatus
    spi.o(i.SpiReadWriteByte) refers to stm32f10x_spi.o(i.SPI_I2S_SendData) for SPI_I2S_SendData
    spi.o(i.SpiReadWriteByte) refers to stm32f10x_spi.o(i.SPI_I2S_ReceiveData) for SPI_I2S_ReceiveData
    spi.o(i.SpiSetSpeed) refers to stm32f10x_spi.o(i.SPI_Cmd) for SPI_Cmd
    timer.o(i.GetTimer) refers to timer.o(.data) for .data
    timer.o(i.SetTimer) refers to timer.o(.data) for .data
    timer.o(i.TIM2_IRQHandler) refers to stm32f10x_tim.o(i.TIM_GetITStatus) for TIM_GetITStatus
    timer.o(i.TIM2_IRQHandler) refers to stm32f10x_tim.o(i.TIM_ClearITPendingBit) for TIM_ClearITPendingBit
    timer.o(i.TIM2_IRQHandler) refers to stm32f10x_tim.o(i.TIM_Cmd) for TIM_Cmd
    timer.o(i.TIM2_IRQHandler) refers to timer.o(.data) for .data
    timer.o(i.TIM_Close) refers to stm32f10x_tim.o(i.TIM_Cmd) for TIM_Cmd
    timer.o(i.TIM_Create) refers to stm32f10x_rcc.o(i.RCC_APB1PeriphClockCmd) for RCC_APB1PeriphClockCmd
    timer.o(i.TIM_Create) refers to stm32f10x_tim.o(i.TIM_TimeBaseInit) for TIM_TimeBaseInit
    timer.o(i.TIM_Create) refers to misc.o(i.NVIC_Init) for NVIC_Init
    timer.o(i.TIM_Create) refers to stm32f10x_tim.o(i.TIM_ITConfig) for TIM_ITConfig
    timer.o(i.TIM_Open) refers to stm32f10x_tim.o(i.TIM_Cmd) for TIM_Cmd
    iic.o(i.IIC_Ack) refers to kernal.o(i.DelayUs_Sft) for DelayUs_Sft
    iic.o(i.IIC_Init) refers to stm32f10x_rcc.o(i.RCC_APB2PeriphClockCmd) for RCC_APB2PeriphClockCmd
    iic.o(i.IIC_Init) refers to stm32f10x_gpio.o(i.GPIO_Set) for GPIO_Set
    iic.o(i.IIC_Init) refers to stm32f10x_gpio.o(i.GPIO_SetBits) for GPIO_SetBits
    iic.o(i.IIC_NAck) refers to kernal.o(i.DelayUs_Sft) for DelayUs_Sft
    iic.o(i.IIC_Read_Byte) refers to kernal.o(i.DelayUs_Sft) for DelayUs_Sft
    iic.o(i.IIC_Read_Byte) refers to iic.o(i.IIC_Ack) for IIC_Ack
    iic.o(i.IIC_Read_Byte) refers to iic.o(i.IIC_NAck) for IIC_NAck
    iic.o(i.IIC_Send_Byte) refers to kernal.o(i.DelayUs_Sft) for DelayUs_Sft
    iic.o(i.IIC_Start) refers to kernal.o(i.DelayUs_Sft) for DelayUs_Sft
    iic.o(i.IIC_Stop) refers to kernal.o(i.DelayUs_Sft) for DelayUs_Sft
    iic.o(i.IIC_Wait_Ack) refers to kernal.o(i.DelayUs_Sft) for DelayUs_Sft
    iic.o(i.IIC_Wait_Ack) refers to iic.o(i.IIC_Stop) for IIC_Stop
    tsa5017.o(i.Tsa5017Init) refers to stm32f10x_rcc.o(i.RCC_APB2PeriphClockCmd) for RCC_APB2PeriphClockCmd
    tsa5017.o(i.Tsa5017Init) refers to stm32f10x_gpio.o(i.GPIO_Set) for GPIO_Set
    tsa5017.o(i.Tsa5017Init) refers to stm32f10x_gpio.o(i.GPIO_ResetBits) for GPIO_ResetBits
    tsa5017.o(i.Tsa5017_CH1) refers to ads1248.o(i.ADS1248_WriteReg) for ADS1248_WriteReg
    tsa5017.o(i.Tsa5017_CH1) refers to stm32f10x_gpio.o(i.GPIO_ResetBits) for GPIO_ResetBits
    tsa5017.o(i.Tsa5017_CH1) refers to kernal.o(i.DelayMs) for DelayMs
    tsa5017.o(i.Tsa5017_CH2) refers to ads1248.o(i.ADS1248_WriteReg) for ADS1248_WriteReg
    tsa5017.o(i.Tsa5017_CH2) refers to stm32f10x_gpio.o(i.GPIO_SetBits) for GPIO_SetBits
    tsa5017.o(i.Tsa5017_CH2) refers to stm32f10x_gpio.o(i.GPIO_ResetBits) for GPIO_ResetBits
    tsa5017.o(i.Tsa5017_CH2) refers to kernal.o(i.DelayMs) for DelayMs
    tsa5017.o(i.Tsa5017_CH3) refers to ads1248.o(i.ADS1248_WriteReg) for ADS1248_WriteReg
    tsa5017.o(i.Tsa5017_CH3) refers to stm32f10x_gpio.o(i.GPIO_ResetBits) for GPIO_ResetBits
    tsa5017.o(i.Tsa5017_CH3) refers to stm32f10x_gpio.o(i.GPIO_SetBits) for GPIO_SetBits
    tsa5017.o(i.Tsa5017_CH3) refers to kernal.o(i.DelayMs) for DelayMs
    tsa5017.o(i.Tsa5017_CH4) refers to ads1248.o(i.ADS1248_WriteReg) for ADS1248_WriteReg
    tsa5017.o(i.Tsa5017_CH4) refers to stm32f10x_gpio.o(i.GPIO_SetBits) for GPIO_SetBits
    tsa5017.o(i.Tsa5017_CH4) refers to kernal.o(i.DelayMs) for DelayMs
    ads1248.o(i.ADS1248_Calibrate) refers to ads1248.o(i.ADS1248_WriteReg) for ADS1248_WriteReg
    ads1248.o(i.ADS1248_Calibrate) refers to ads1248.o(i.ADS1248_WriteByte) for ADS1248_WriteByte
    ads1248.o(i.ADS1248_Calibrate) refers to ads1248.o(i.ADS1248_WaitBusy) for ADS1248_WaitBusy
    ads1248.o(i.ADS1248_Init) refers to stm32f10x_rcc.o(i.RCC_APB2PeriphClockCmd) for RCC_APB2PeriphClockCmd
    ads1248.o(i.ADS1248_Init) refers to stm32f10x_gpio.o(i.GPIO_PinRemapConfig) for GPIO_PinRemapConfig
    ads1248.o(i.ADS1248_Init) refers to stm32f10x_gpio.o(i.GPIO_Set) for GPIO_Set
    ads1248.o(i.ADS1248_Init) refers to stm32f10x_gpio.o(i.GPIO_ResetBits) for GPIO_ResetBits
    ads1248.o(i.ADS1248_Init) refers to kernal.o(i.DelayMs_Sft) for DelayMs_Sft
    ads1248.o(i.ADS1248_Init) refers to stm32f10x_gpio.o(i.GPIO_SetBits) for GPIO_SetBits
    ads1248.o(i.ADS1248_Init) refers to ads1248.o(i.ADS1248_WriteReg) for ADS1248_WriteReg
    ads1248.o(i.ADS1248_Init) refers to kernal.o(i.DelayMs) for DelayMs
    ads1248.o(i.ADS1248_ReadByte) refers to stm32f10x_gpio.o(i.GPIO_ResetBits) for GPIO_ResetBits
    ads1248.o(i.ADS1248_ReadByte) refers to kernal.o(i.DelayUs_Sft) for DelayUs_Sft
    ads1248.o(i.ADS1248_ReadByte) refers to spi.o(i.SpiReadWriteByte) for SpiReadWriteByte
    ads1248.o(i.ADS1248_ReadByte) refers to stm32f10x_gpio.o(i.GPIO_SetBits) for GPIO_SetBits
    ads1248.o(i.ADS1248_ReadReg) refers to stm32f10x_gpio.o(i.GPIO_ResetBits) for GPIO_ResetBits
    ads1248.o(i.ADS1248_ReadReg) refers to kernal.o(i.DelayUs_Sft) for DelayUs_Sft
    ads1248.o(i.ADS1248_ReadReg) refers to spi.o(i.SpiReadWriteByte) for SpiReadWriteByte
    ads1248.o(i.ADS1248_ReadReg) refers to stm32f10x_gpio.o(i.GPIO_SetBits) for GPIO_SetBits
    ads1248.o(i.ADS1248_WaitBusy) refers to stm32f10x_gpio.o(i.GPIO_ResetBits) for GPIO_ResetBits
    ads1248.o(i.ADS1248_WaitBusy) refers to kernal.o(i.DelayUs_Sft) for DelayUs_Sft
    ads1248.o(i.ADS1248_WaitBusy) refers to kernal.o(i.DelayMs) for DelayMs
    ads1248.o(i.ADS1248_WaitBusy) refers to stm32f10x_gpio.o(i.GPIO_ReadInputDataBit) for GPIO_ReadInputDataBit
    ads1248.o(i.ADS1248_WaitBusy) refers to stm32f10x_gpio.o(i.GPIO_SetBits) for GPIO_SetBits
    ads1248.o(i.ADS1248_WriteByte) refers to stm32f10x_gpio.o(i.GPIO_ResetBits) for GPIO_ResetBits
    ads1248.o(i.ADS1248_WriteByte) refers to kernal.o(i.DelayUs_Sft) for DelayUs_Sft
    ads1248.o(i.ADS1248_WriteByte) refers to spi.o(i.SpiReadWriteByte) for SpiReadWriteByte
    ads1248.o(i.ADS1248_WriteByte) refers to stm32f10x_gpio.o(i.GPIO_SetBits) for GPIO_SetBits
    ads1248.o(i.ADS1248_WriteReg) refers to stm32f10x_gpio.o(i.GPIO_ResetBits) for GPIO_ResetBits
    ads1248.o(i.ADS1248_WriteReg) refers to kernal.o(i.DelayUs_Sft) for DelayUs_Sft
    ads1248.o(i.ADS1248_WriteReg) refers to spi.o(i.SpiReadWriteByte) for SpiReadWriteByte
    ads1248.o(i.ADS1248_WriteReg) refers to stm32f10x_gpio.o(i.GPIO_SetBits) for GPIO_SetBits
    ads1248.o(i.ADS_DataReadCotinu) refers to ads1248.o(i.ADS1248_WriteByte) for ADS1248_WriteByte
    ads1248.o(i.ADS_DataReadCotinu) refers to ads1248.o(.data) for .data
    ads1248.o(i.ADS_DataReadOnce) refers to ads1248.o(i.ADS1248_WriteByte) for ADS1248_WriteByte
    ads1248.o(i.ADS_DataReadOnce) refers to ads1248.o(i.ADS1248_ReadByte) for ADS1248_ReadByte
    ads1248.o(i.ADS_SetIdac) refers to ads1248.o(i.ADS1248_WriteByte) for ADS1248_WriteByte
    ads1248.o(i.ADS_SetPGAGain) refers to ads1248.o(i.ADS1248_WriteByte) for ADS1248_WriteByte
    ads1248.o(i.PT100TempProcess) refers to tsa5017.o(i.Tsa5017_CH1) for Tsa5017_CH1
    ads1248.o(i.PT100TempProcess) refers to tsa5017.o(i.Tsa5017_CH2) for Tsa5017_CH2
    ads1248.o(i.PT100TempProcess) refers to tsa5017.o(i.Tsa5017_CH3) for Tsa5017_CH3
    ads1248.o(i.PT100TempProcess) refers to tsa5017.o(i.Tsa5017_CH4) for Tsa5017_CH4
    ads1248.o(i.PT100TempProcess) refers to kernal.o(i.DelayMs) for DelayMs
    ads1248.o(i.PT100TempProcess) refers to ads1248.o(i.ADS1248_ReadReg) for ADS1248_ReadReg
    ads1248.o(i.PT100TempProcess) refers to ads1248.o(i.ADS_DataReadOnce) for ADS_DataReadOnce
    ads1248.o(i.PT100TempProcess) refers to dflt_clz.o(x$fpl$dfltu) for __aeabi_ui2d
    ads1248.o(i.PT100TempProcess) refers to dmul.o(x$fpl$dmul) for __aeabi_dmul
    ads1248.o(i.PT100TempProcess) refers to drleqf.o(x$fpl$drleqf) for __aeabi_cdrcmple
    ads1248.o(i.PT100TempProcess) refers to daddsub_clz.o(x$fpl$dadd) for __aeabi_dadd
    ads1248.o(i.PT100TempProcess) refers to ddiv.o(x$fpl$ddiv) for __aeabi_ddiv
    ads1248.o(i.PT100TempProcess) refers to d2f.o(x$fpl$d2f) for __aeabi_d2f
    ads1248.o(i.PT100TempProcess) refers to f2d.o(x$fpl$f2d) for __aeabi_f2d
    ads1248.o(i.PT100TempProcess) refers to ads1248.o(i.Pt100) for Pt100
    ads1248.o(i.Pt100) refers to daddsub_clz.o(x$fpl$drsb) for __aeabi_drsub
    ads1248.o(i.Pt100) refers to dmul.o(x$fpl$dmul) for __aeabi_dmul
    ads1248.o(i.Pt100) refers to sqrt.o(i.sqrt) for sqrt
    ads1248.o(i.Pt100) refers to daddsub_clz.o(x$fpl$dsub) for __aeabi_dsub
    ads1248.o(i.Pt100) refers to scalbn.o(x$fpl$scalbn) for __ARM_scalbn
    ads1248.o(i.Pt100) refers to ddiv.o(x$fpl$ddiv) for __aeabi_ddiv
    dtu.o(i.DetectOnline) refers to stm32f10x_gpio.o(i.GPIO_ReadInputDataBit) for GPIO_ReadInputDataBit
    dtu.o(i.DtuInit) refers to stm32f10x_rcc.o(i.RCC_APB2PeriphClockCmd) for RCC_APB2PeriphClockCmd
    dtu.o(i.DtuInit) refers to stm32f10x_gpio.o(i.GPIO_PinRemapConfig) for GPIO_PinRemapConfig
    dtu.o(i.DtuInit) refers to stm32f10x_gpio.o(i.GPIO_Set) for GPIO_Set
    dtu.o(i.DtuInit) refers to dtu.o(i.DtuPwrOn) for DtuPwrOn
    dtu.o(i.DtuInit) refers to dtu.o(i.DtuOn) for DtuOn
    dtu.o(i.DtuOff) refers to stm32f10x_gpio.o(i.GPIO_SetBits) for GPIO_SetBits
    dtu.o(i.DtuOn) refers to stm32f10x_gpio.o(i.GPIO_ResetBits) for GPIO_ResetBits
    dtu.o(i.DtuPwrOff) refers to stm32f10x_gpio.o(i.GPIO_ResetBits) for GPIO_ResetBits
    dtu.o(i.DtuPwrOn) refers to stm32f10x_gpio.o(i.GPIO_SetBits) for GPIO_SetBits
    sst25vf064c.o(i.ExternFlashBlockErase_32K) refers to sst25vf064c.o(i.WREN) for WREN
    sst25vf064c.o(i.ExternFlashBlockErase_32K) refers to stm32f10x_gpio.o(i.GPIO_ResetBits) for GPIO_ResetBits
    sst25vf064c.o(i.ExternFlashBlockErase_32K) refers to spi.o(i.SpiReadWriteByte) for SpiReadWriteByte
    sst25vf064c.o(i.ExternFlashBlockErase_32K) refers to stm32f10x_gpio.o(i.GPIO_SetBits) for GPIO_SetBits
    sst25vf064c.o(i.ExternFlashBlockErase_32K) refers to sst25vf064c.o(i.ReadStatusRegister) for ReadStatusRegister
    sst25vf064c.o(i.ExternFlashBlockErase_64K) refers to sst25vf064c.o(i.WREN) for WREN
    sst25vf064c.o(i.ExternFlashBlockErase_64K) refers to stm32f10x_gpio.o(i.GPIO_ResetBits) for GPIO_ResetBits
    sst25vf064c.o(i.ExternFlashBlockErase_64K) refers to spi.o(i.SpiReadWriteByte) for SpiReadWriteByte
    sst25vf064c.o(i.ExternFlashBlockErase_64K) refers to stm32f10x_gpio.o(i.GPIO_SetBits) for GPIO_SetBits
    sst25vf064c.o(i.ExternFlashBlockErase_64K) refers to sst25vf064c.o(i.ReadStatusRegister) for ReadStatusRegister
    sst25vf064c.o(i.ExternFlashChipErase) refers to sst25vf064c.o(i.WREN) for WREN
    sst25vf064c.o(i.ExternFlashChipErase) refers to stm32f10x_gpio.o(i.GPIO_ResetBits) for GPIO_ResetBits
    sst25vf064c.o(i.ExternFlashChipErase) refers to spi.o(i.SpiReadWriteByte) for SpiReadWriteByte
    sst25vf064c.o(i.ExternFlashChipErase) refers to stm32f10x_gpio.o(i.GPIO_SetBits) for GPIO_SetBits
    sst25vf064c.o(i.ExternFlashChipErase) refers to sst25vf064c.o(i.ReadStatusRegister) for ReadStatusRegister
    sst25vf064c.o(i.ExternFlashHighSpeedRead) refers to stm32f10x_gpio.o(i.GPIO_ResetBits) for GPIO_ResetBits
    sst25vf064c.o(i.ExternFlashHighSpeedRead) refers to spi.o(i.SpiReadWriteByte) for SpiReadWriteByte
    sst25vf064c.o(i.ExternFlashHighSpeedRead) refers to stm32f10x_gpio.o(i.GPIO_SetBits) for GPIO_SetBits
    sst25vf064c.o(i.ExternFlashPageProgram) refers to sst25vf064c.o(i.WREN) for WREN
    sst25vf064c.o(i.ExternFlashPageProgram) refers to stm32f10x_gpio.o(i.GPIO_ResetBits) for GPIO_ResetBits
    sst25vf064c.o(i.ExternFlashPageProgram) refers to spi.o(i.SpiReadWriteByte) for SpiReadWriteByte
    sst25vf064c.o(i.ExternFlashPageProgram) refers to stm32f10x_gpio.o(i.GPIO_SetBits) for GPIO_SetBits
    sst25vf064c.o(i.ExternFlashPageProgram) refers to stm32f10x_gpio.o(i.GPIO_ReadInputDataBit) for GPIO_ReadInputDataBit
    sst25vf064c.o(i.ExternFlashPageProgram) refers to sst25vf064c.o(i.ReadStatusRegister) for ReadStatusRegister
    sst25vf064c.o(i.ExternFlashSectorErase_4K) refers to sst25vf064c.o(i.WREN) for WREN
    sst25vf064c.o(i.ExternFlashSectorErase_4K) refers to stm32f10x_gpio.o(i.GPIO_ResetBits) for GPIO_ResetBits
    sst25vf064c.o(i.ExternFlashSectorErase_4K) refers to spi.o(i.SpiReadWriteByte) for SpiReadWriteByte
    sst25vf064c.o(i.ExternFlashSectorErase_4K) refers to stm32f10x_gpio.o(i.GPIO_SetBits) for GPIO_SetBits
    sst25vf064c.o(i.ExternFlashSectorErase_4K) refers to sst25vf064c.o(i.ReadStatusRegister) for ReadStatusRegister
    sst25vf064c.o(i.ExternFlash_Init) refers to stm32f10x_gpio.o(i.GPIO_ResetBits) for GPIO_ResetBits
    sst25vf064c.o(i.ExternFlash_Init) refers to spi.o(i.SpiReadWriteByte) for SpiReadWriteByte
    sst25vf064c.o(i.ExternFlash_Init) refers to stm32f10x_gpio.o(i.GPIO_SetBits) for GPIO_SetBits
    sst25vf064c.o(i.JedecIDRead) refers to stm32f10x_gpio.o(i.GPIO_ResetBits) for GPIO_ResetBits
    sst25vf064c.o(i.JedecIDRead) refers to spi.o(i.SpiReadWriteByte) for SpiReadWriteByte
    sst25vf064c.o(i.JedecIDRead) refers to stm32f10x_gpio.o(i.GPIO_SetBits) for GPIO_SetBits
    sst25vf064c.o(i.LockSID) refers to stm32f10x_gpio.o(i.GPIO_ResetBits) for GPIO_ResetBits
    sst25vf064c.o(i.LockSID) refers to spi.o(i.SpiReadWriteByte) for SpiReadWriteByte
    sst25vf064c.o(i.LockSID) refers to stm32f10x_gpio.o(i.GPIO_SetBits) for GPIO_SetBits
    sst25vf064c.o(i.ProgSID) refers to stm32f10x_gpio.o(i.GPIO_ResetBits) for GPIO_ResetBits
    sst25vf064c.o(i.ProgSID) refers to spi.o(i.SpiReadWriteByte) for SpiReadWriteByte
    sst25vf064c.o(i.ProgSID) refers to stm32f10x_gpio.o(i.GPIO_SetBits) for GPIO_SetBits
    sst25vf064c.o(i.Read) refers to stm32f10x_gpio.o(i.GPIO_ResetBits) for GPIO_ResetBits
    sst25vf064c.o(i.Read) refers to spi.o(i.SpiReadWriteByte) for SpiReadWriteByte
    sst25vf064c.o(i.Read) refers to stm32f10x_gpio.o(i.GPIO_SetBits) for GPIO_SetBits
    sst25vf064c.o(i.ReadID) refers to stm32f10x_gpio.o(i.GPIO_ResetBits) for GPIO_ResetBits
    sst25vf064c.o(i.ReadID) refers to spi.o(i.SpiReadWriteByte) for SpiReadWriteByte
    sst25vf064c.o(i.ReadID) refers to stm32f10x_gpio.o(i.GPIO_SetBits) for GPIO_SetBits
    sst25vf064c.o(i.ReadSID) refers to stm32f10x_gpio.o(i.GPIO_ResetBits) for GPIO_ResetBits
    sst25vf064c.o(i.ReadSID) refers to spi.o(i.SpiReadWriteByte) for SpiReadWriteByte
    sst25vf064c.o(i.ReadSID) refers to stm32f10x_gpio.o(i.GPIO_SetBits) for GPIO_SetBits
    sst25vf064c.o(i.ReadStatusRegister) refers to stm32f10x_gpio.o(i.GPIO_ResetBits) for GPIO_ResetBits
    sst25vf064c.o(i.ReadStatusRegister) refers to spi.o(i.SpiReadWriteByte) for SpiReadWriteByte
    sst25vf064c.o(i.ReadStatusRegister) refers to stm32f10x_gpio.o(i.GPIO_SetBits) for GPIO_SetBits
    sst25vf064c.o(i.SST25VF0_Init) refers to spi.o(i.SpiCreate) for SpiCreate
    sst25vf064c.o(i.SST25VF0_Init) refers to spi.o(i.SpiOpen) for SpiOpen
    sst25vf064c.o(i.SST25VF0_Init) refers to stm32f10x_rcc.o(i.RCC_APB2PeriphClockCmd) for RCC_APB2PeriphClockCmd
    sst25vf064c.o(i.SST25VF0_Init) refers to stm32f10x_gpio.o(i.GPIO_Set) for GPIO_Set
    sst25vf064c.o(i.SST25VF0_Init) refers to stm32f10x_gpio.o(i.GPIO_ResetBits) for GPIO_ResetBits
    sst25vf064c.o(i.SST25VF0_Init) refers to stm32f10x_gpio.o(i.GPIO_SetBits) for GPIO_SetBits
    sst25vf064c.o(i.WREN) refers to stm32f10x_gpio.o(i.GPIO_ResetBits) for GPIO_ResetBits
    sst25vf064c.o(i.WREN) refers to spi.o(i.SpiReadWriteByte) for SpiReadWriteByte
    sst25vf064c.o(i.WREN) refers to stm32f10x_gpio.o(i.GPIO_SetBits) for GPIO_SetBits
    am2305.o(i.AM2305_Init) refers to stm32f10x_rcc.o(i.RCC_APB2PeriphClockCmd) for RCC_APB2PeriphClockCmd
    am2305.o(i.AM2305_ReceiveByte) refers to stm32f10x_gpio.o(i.GPIO_ReadInputDataBit) for GPIO_ReadInputDataBit
    am2305.o(i.AM2305_ReceiveByte) refers to kernal.o(i.DelayUs_Sft) for DelayUs_Sft
    am2305.o(i.AM2305_Run) refers to am2305.o(i.AM2305_Start) for AM2305_Start
    am2305.o(i.AM2305_Run) refers to kernal.o(i.DelayUs_Sft) for DelayUs_Sft
    am2305.o(i.AM2305_Run) refers to stm32f10x_gpio.o(i.GPIO_ReadInputDataBit) for GPIO_ReadInputDataBit
    am2305.o(i.AM2305_Run) refers to am2305.o(i.AM2305_ReceiveByte) for AM2305_ReceiveByte
    am2305.o(i.AM2305_Run) refers to am2305.o(.data) for .data
    am2305.o(i.AM2305_Start) refers to stm32f10x_gpio.o(i.GPIO_Set) for GPIO_Set
    am2305.o(i.AM2305_Start) refers to stm32f10x_gpio.o(i.GPIO_ResetBits) for GPIO_ResetBits
    am2305.o(i.AM2305_Start) refers to kernal.o(i.DelayMs) for DelayMs
    am2305.o(i.AM2305_Start) refers to stm32f10x_gpio.o(i.GPIO_SetBits) for GPIO_SetBits
    am2305.o(i.AM2305_Start) refers to kernal.o(i.DelayUs_Sft) for DelayUs_Sft
    am2305.o(i.AM2305_Start) refers to stm32f10x_gpio.o(i.GPIO_ReadInputDataBit) for GPIO_ReadInputDataBit
    am2305.o(i.GetAm2305Data) refers to am2305.o(.data) for .data
    rtc.o(i.RTC_Get) refers to rtc.o(i.Is_Leap_Year) for Is_Leap_Year
    rtc.o(i.RTC_Get) refers to rtc.o(.data) for .data
    rtc.o(i.RTC_Get) refers to rtc.o(.bss) for .bss
    rtc.o(i.RTC_Get) refers to rtc.o(.constdata) for .constdata
    rtc.o(i.RTC_IRQHandler) refers to stm32f10x_rtc.o(i.RTC_GetITStatus) for RTC_GetITStatus
    rtc.o(i.RTC_IRQHandler) refers to rtc.o(i.RTC_Get) for RTC_Get
    rtc.o(i.RTC_IRQHandler) refers to stm32f10x_rtc.o(i.RTC_ClearITPendingBit) for RTC_ClearITPendingBit
    rtc.o(i.RTC_IRQHandler) refers to stm32f10x_rtc.o(i.RTC_WaitForLastTask) for RTC_WaitForLastTask
    rtc.o(i.RTC_Init) refers to stm32f10x_bkp.o(i.BKP_ReadBackupRegister) for BKP_ReadBackupRegister
    rtc.o(i.RTC_Init) refers to stm32f10x_rcc.o(i.RCC_APB1PeriphClockCmd) for RCC_APB1PeriphClockCmd
    rtc.o(i.RTC_Init) refers to stm32f10x_pwr.o(i.PWR_BackupAccessCmd) for PWR_BackupAccessCmd
    rtc.o(i.RTC_Init) refers to stm32f10x_bkp.o(i.BKP_DeInit) for BKP_DeInit
    rtc.o(i.RTC_Init) refers to stm32f10x_rcc.o(i.RCC_LSEConfig) for RCC_LSEConfig
    rtc.o(i.RTC_Init) refers to kernal.o(i.DelayMs_Sft) for DelayMs_Sft
    rtc.o(i.RTC_Init) refers to stm32f10x_rcc.o(i.RCC_GetFlagStatus) for RCC_GetFlagStatus
    rtc.o(i.RTC_Init) refers to stm32f10x_rcc.o(i.RCC_RTCCLKConfig) for RCC_RTCCLKConfig
    rtc.o(i.RTC_Init) refers to stm32f10x_rcc.o(i.RCC_RTCCLKCmd) for RCC_RTCCLKCmd
    rtc.o(i.RTC_Init) refers to stm32f10x_rtc.o(i.RTC_WaitForLastTask) for RTC_WaitForLastTask
    rtc.o(i.RTC_Init) refers to stm32f10x_rtc.o(i.RTC_WaitForSynchro) for RTC_WaitForSynchro
    rtc.o(i.RTC_Init) refers to stm32f10x_rtc.o(i.RTC_ITConfig) for RTC_ITConfig
    rtc.o(i.RTC_Init) refers to stm32f10x_rtc.o(i.RTC_EnterConfigMode) for RTC_EnterConfigMode
    rtc.o(i.RTC_Init) refers to stm32f10x_rtc.o(i.RTC_SetPrescaler) for RTC_SetPrescaler
    rtc.o(i.RTC_Init) refers to rtc.o(i.RTC_Set) for RTC_Set
    rtc.o(i.RTC_Init) refers to stm32f10x_rtc.o(i.RTC_ExitConfigMode) for RTC_ExitConfigMode
    rtc.o(i.RTC_Init) refers to stm32f10x_bkp.o(i.BKP_WriteBackupRegister) for BKP_WriteBackupRegister
    rtc.o(i.RTC_Init) refers to misc.o(i.NVIC_Init) for NVIC_Init
    rtc.o(i.RTC_Init) refers to rtc.o(i.RTC_Get) for RTC_Get
    rtc.o(i.RTC_Init) refers to kernal.o(.data) for cSysInfo
    rtc.o(i.RTC_Set) refers to rtc.o(i.Is_Leap_Year) for Is_Leap_Year
    rtc.o(i.RTC_Set) refers to stm32f10x_rcc.o(i.RCC_APB1PeriphClockCmd) for RCC_APB1PeriphClockCmd
    rtc.o(i.RTC_Set) refers to stm32f10x_pwr.o(i.PWR_BackupAccessCmd) for PWR_BackupAccessCmd
    rtc.o(i.RTC_Set) refers to stm32f10x_rtc.o(i.RTC_SetCounter) for RTC_SetCounter
    rtc.o(i.RTC_Set) refers to stm32f10x_rtc.o(i.RTC_WaitForLastTask) for RTC_WaitForLastTask
    rtc.o(i.RTC_Set) refers to rtc.o(.constdata) for .constdata
    adc.o(i.AdcInit) refers to stm32f10x_rcc.o(i.RCC_APB2PeriphClockCmd) for RCC_APB2PeriphClockCmd
    adc.o(i.AdcInit) refers to stm32f10x_rcc.o(i.RCC_ADCCLKConfig) for RCC_ADCCLKConfig
    adc.o(i.AdcInit) refers to stm32f10x_gpio.o(i.GPIO_Init) for GPIO_Init
    adc.o(i.AdcInit) refers to stm32f10x_adc.o(i.ADC_DeInit) for ADC_DeInit
    adc.o(i.AdcInit) refers to stm32f10x_adc.o(i.ADC_Init) for ADC_Init
    adc.o(i.AdcInit) refers to stm32f10x_adc.o(i.ADC_Cmd) for ADC_Cmd
    adc.o(i.AdcInit) refers to stm32f10x_adc.o(i.ADC_ResetCalibration) for ADC_ResetCalibration
    adc.o(i.AdcInit) refers to stm32f10x_adc.o(i.ADC_GetResetCalibrationStatus) for ADC_GetResetCalibrationStatus
    adc.o(i.AdcInit) refers to stm32f10x_adc.o(i.ADC_StartCalibration) for ADC_StartCalibration
    adc.o(i.AdcInit) refers to stm32f10x_adc.o(i.ADC_GetCalibrationStatus) for ADC_GetCalibrationStatus
    adc.o(i.GetAdc) refers to stm32f10x_adc.o(i.ADC_RegularChannelConfig) for ADC_RegularChannelConfig
    adc.o(i.GetAdc) refers to stm32f10x_adc.o(i.ADC_SoftwareStartConvCmd) for ADC_SoftwareStartConvCmd
    adc.o(i.GetAdc) refers to stm32f10x_adc.o(i.ADC_GetFlagStatus) for ADC_GetFlagStatus
    adc.o(i.GetAdc) refers to stm32f10x_adc.o(i.ADC_GetConversionValue) for ADC_GetConversionValue
    adc.o(i.GetAdcAverage) refers to adc.o(i.GetAdc) for GetAdc
    adc.o(i.GetAdcAverage) refers to kernal.o(i.DelayMs) for DelayMs
    flash.o(i.DownSTM32Flash) refers to flash.o(i.FlashWriteSTM32) for FlashWriteSTM32
    flash.o(i.DownSTM32Flash) refers to flash.o(.data) for .data
    flash.o(i.FlashInit) refers to stm32f10x_flash.o(i.FLASH_Unlock) for FLASH_Unlock
    flash.o(i.FlashInit) refers to kernal.o(i.DelayMs) for DelayMs
    flash.o(i.FlashInit) refers to stm32f10x_flash.o(i.FLASH_ErasePage) for FLASH_ErasePage
    flash.o(i.FlashInit) refers to stm32f10x_flash.o(i.FLASH_Lock) for FLASH_Lock
    flash.o(i.FlashReadSTM32) refers to rt_memcpy_v6.o(.text) for __aeabi_memcpy
    flash.o(i.FlashWriteSTM32) refers to aeabi_memset.o(.text) for __aeabi_memset
    flash.o(i.FlashWriteSTM32) refers to stm32f10x_flash.o(i.FLASH_Unlock) for FLASH_Unlock
    flash.o(i.FlashWriteSTM32) refers to flash.o(i.FlashReadSTM32) for FlashReadSTM32
    flash.o(i.FlashWriteSTM32) refers to rt_memcpy_v6.o(.text) for __aeabi_memcpy
    flash.o(i.FlashWriteSTM32) refers to flash.o(i.WriteOnePage) for WriteOnePage
    flash.o(i.FlashWriteSTM32) refers to stm32f10x_flash.o(i.FLASH_Lock) for FLASH_Lock
    flash.o(i.WriteOnePage) refers to stm32f10x_flash.o(i.FLASH_ErasePage) for FLASH_ErasePage
    flash.o(i.WriteOnePage) refers to stm32f10x_flash.o(i.FLASH_ProgramWord) for FLASH_ProgramWord
    flash.o(i.WriteOnePage) refers to flash.o(.data) for .data
    ltc2402.o(i.LTC2402_ReadByte) refers to stm32f10x_gpio.o(i.GPIO_SetBits) for GPIO_SetBits
    ltc2402.o(i.LTC2402_ReadByte) refers to kernal.o(i.DelayUs_Sft) for DelayUs_Sft
    ltc2402.o(i.LTC2402_ReadByte) refers to stm32f10x_gpio.o(i.GPIO_ReadInputDataBit) for GPIO_ReadInputDataBit
    ltc2402.o(i.LTC2402_ReadByte) refers to stm32f10x_gpio.o(i.GPIO_ResetBits) for GPIO_ResetBits
    ltc2402.o(i.LTC2402_TEST_EOC_End) refers to stm32f10x_gpio.o(i.GPIO_SetBits) for GPIO_SetBits
    ltc2402.o(i.LTC2402_TEST_EOC_End) refers to stm32f10x_gpio.o(i.GPIO_ResetBits) for GPIO_ResetBits
    ltc2402.o(i.LTC2402_TEST_EOC_Start) refers to stm32f10x_gpio.o(i.GPIO_ResetBits) for GPIO_ResetBits
    ltc2402.o(i.LTC2402_TEST_EOC_Start) refers to ltc2402.o(i.LTC2402_ReadByte) for LTC2402_ReadByte
    ltc2402.o(i.Ltc2402SoftInit) refers to stm32f10x_rcc.o(i.RCC_APB2PeriphClockCmd) for RCC_APB2PeriphClockCmd
    ltc2402.o(i.Ltc2402SoftInit) refers to stm32f10x_gpio.o(i.GPIO_Set) for GPIO_Set
    ltc2402.o(i.Ltc2402SoftInit) refers to kernal.o(i.DelayMs_Sft) for DelayMs_Sft
    ltc2402.o(i.Ltc2402SoftInit) refers to stm32f10x_gpio.o(i.GPIO_SetBits) for GPIO_SetBits
    ltc2402.o(i.Ltc2402SoftInit) refers to stm32f10x_gpio.o(i.GPIO_ResetBits) for GPIO_ResetBits
    ltc2402.o(i.Ltc2402SoftInit) refers to kernal.o(i.DelayMs) for DelayMs
    ds18b20.o(i.DS18B20_Check) refers to stm32f10x_gpio.o(i.GPIO_Set) for GPIO_Set
    ds18b20.o(i.DS18B20_Check) refers to kernal.o(i.DelayUs_Sft) for DelayUs_Sft
    ds18b20.o(i.DS18B20_Check) refers to stm32f10x_gpio.o(i.GPIO_ReadInputDataBit) for GPIO_ReadInputDataBit
    ds18b20.o(i.DS18B20_Get_Temp) refers to ds18b20.o(i.DS18B20_Start) for DS18B20_Start
    ds18b20.o(i.DS18B20_Get_Temp) refers to kernal.o(i.DelayUs_Sft) for DelayUs_Sft
    ds18b20.o(i.DS18B20_Get_Temp) refers to ds18b20.o(i.DS18B20_Rst) for DS18B20_Rst
    ds18b20.o(i.DS18B20_Get_Temp) refers to ds18b20.o(i.DS18B20_Check) for DS18B20_Check
    ds18b20.o(i.DS18B20_Get_Temp) refers to ds18b20.o(i.DS18B20_Write_Byte) for DS18B20_Write_Byte
    ds18b20.o(i.DS18B20_Get_Temp) refers to ds18b20.o(i.DS18B20_Read_Byte) for DS18B20_Read_Byte
    ds18b20.o(i.DS18B20_Get_Temp) refers to dflt_clz.o(x$fpl$dflt) for __aeabi_i2d
    ds18b20.o(i.DS18B20_Get_Temp) refers to dmul.o(x$fpl$dmul) for __aeabi_dmul
    ds18b20.o(i.DS18B20_Get_Temp) refers to dfix.o(x$fpl$dfix) for __aeabi_d2iz
    ds18b20.o(i.DS18B20_Init) refers to stm32f10x_rcc.o(i.RCC_APB2PeriphClockCmd) for RCC_APB2PeriphClockCmd
    ds18b20.o(i.DS18B20_Init) refers to stm32f10x_gpio.o(i.GPIO_Init) for GPIO_Init
    ds18b20.o(i.DS18B20_Init) refers to stm32f10x_gpio.o(i.GPIO_SetBits) for GPIO_SetBits
    ds18b20.o(i.DS18B20_Init) refers to ds18b20.o(i.DS18B20_Rst) for DS18B20_Rst
    ds18b20.o(i.DS18B20_Init) refers to ds18b20.o(i.DS18B20_Check) for DS18B20_Check
    ds18b20.o(i.DS18B20_Read_Bit) refers to stm32f10x_gpio.o(i.GPIO_Set) for GPIO_Set
    ds18b20.o(i.DS18B20_Read_Bit) refers to stm32f10x_gpio.o(i.GPIO_ResetBits) for GPIO_ResetBits
    ds18b20.o(i.DS18B20_Read_Bit) refers to kernal.o(i.DelayUs_Sft) for DelayUs_Sft
    ds18b20.o(i.DS18B20_Read_Bit) refers to stm32f10x_gpio.o(i.GPIO_SetBits) for GPIO_SetBits
    ds18b20.o(i.DS18B20_Read_Bit) refers to stm32f10x_gpio.o(i.GPIO_ReadInputDataBit) for GPIO_ReadInputDataBit
    ds18b20.o(i.DS18B20_Read_Byte) refers to stm32f10x_gpio.o(i.GPIO_Set) for GPIO_Set
    ds18b20.o(i.DS18B20_Read_Byte) refers to stm32f10x_gpio.o(i.GPIO_SetBits) for GPIO_SetBits
    ds18b20.o(i.DS18B20_Read_Byte) refers to kernal.o(i.DelayUs_Sft) for DelayUs_Sft
    ds18b20.o(i.DS18B20_Read_Byte) refers to stm32f10x_gpio.o(i.GPIO_ResetBits) for GPIO_ResetBits
    ds18b20.o(i.DS18B20_Read_Byte) refers to stm32f10x_gpio.o(i.GPIO_ReadInputDataBit) for GPIO_ReadInputDataBit
    ds18b20.o(i.DS18B20_Rst) refers to stm32f10x_gpio.o(i.GPIO_Set) for GPIO_Set
    ds18b20.o(i.DS18B20_Rst) refers to stm32f10x_gpio.o(i.GPIO_ResetBits) for GPIO_ResetBits
    ds18b20.o(i.DS18B20_Rst) refers to kernal.o(i.DelayUs_Sft) for DelayUs_Sft
    ds18b20.o(i.DS18B20_Rst) refers to stm32f10x_gpio.o(i.GPIO_SetBits) for GPIO_SetBits
    ds18b20.o(i.DS18B20_Start) refers to ds18b20.o(i.DS18B20_Rst) for DS18B20_Rst
    ds18b20.o(i.DS18B20_Start) refers to ds18b20.o(i.DS18B20_Check) for DS18B20_Check
    ds18b20.o(i.DS18B20_Start) refers to ds18b20.o(i.DS18B20_Write_Byte) for DS18B20_Write_Byte
    ds18b20.o(i.DS18B20_Write_Byte) refers to stm32f10x_gpio.o(i.GPIO_Set) for GPIO_Set
    ds18b20.o(i.DS18B20_Write_Byte) refers to stm32f10x_gpio.o(i.GPIO_ResetBits) for GPIO_ResetBits
    ds18b20.o(i.DS18B20_Write_Byte) refers to kernal.o(i.DelayUs_Sft) for DelayUs_Sft
    ds18b20.o(i.DS18B20_Write_Byte) refers to stm32f10x_gpio.o(i.GPIO_SetBits) for GPIO_SetBits
    appstorage.o(i.DataStorage) refers to _printf_pad.o(.text) for _printf_pre_padding
    appstorage.o(i.DataStorage) refers to _printf_percent.o(.ARM.Collect$$_printf_percent$$00000000) for _printf_percent
    appstorage.o(i.DataStorage) refers to _printf_f.o(.ARM.Collect$$_printf_percent$$00000003) for _printf_f
    appstorage.o(i.DataStorage) refers to printf1.o(x$fpl$printf1) for _printf_fp_dec
    appstorage.o(i.DataStorage) refers to _printf_d.o(.ARM.Collect$$_printf_percent$$00000009) for _printf_d
    appstorage.o(i.DataStorage) refers to _printf_dec.o(.text) for _printf_int_dec
    appstorage.o(i.DataStorage) refers to serial.o(i.UartInit) for UartInit
    appstorage.o(i.DataStorage) refers to serial.o(i.UartCreate) for UartCreate
    appstorage.o(i.DataStorage) refers to serial.o(i.UartOpen) for UartOpen
    appstorage.o(i.DataStorage) refers to spi.o(i.SpiCreate) for SpiCreate
    appstorage.o(i.DataStorage) refers to spi.o(i.SpiOpen) for SpiOpen
    appstorage.o(i.DataStorage) refers to tsa5017.o(i.Tsa5017Init) for Tsa5017Init
    appstorage.o(i.DataStorage) refers to ads1248.o(i.ADS1248_Init) for ADS1248_Init
    appstorage.o(i.DataStorage) refers to am2305.o(i.AM2305_Init) for AM2305_Init
    appstorage.o(i.DataStorage) refers to adc.o(i.AdcInit) for AdcInit
    appstorage.o(i.DataStorage) refers to sst25vf064c.o(i.SST25VF0_Init) for SST25VF0_Init
    appstorage.o(i.DataStorage) refers to sst25vf064c.o(i.ExternFlash_Init) for ExternFlash_Init
    appstorage.o(i.DataStorage) refers to dtu.o(i.DtuInit) for DtuInit
    appstorage.o(i.DataStorage) refers to kernal.o(i.GetTickCount) for GetTickCount
    appstorage.o(i.DataStorage) refers to appstorage.o(i.GetHumidityTemperature) for GetHumidityTemperature
    appstorage.o(i.DataStorage) refers to adc.o(i.GetAdc) for GetAdc
    appstorage.o(i.DataStorage) refers to dflt_clz.o(x$fpl$dfltu) for __aeabi_ui2d
    appstorage.o(i.DataStorage) refers to scalbn.o(x$fpl$scalbn) for __ARM_scalbn
    appstorage.o(i.DataStorage) refers to dmul.o(x$fpl$dmul) for __aeabi_dmul
    appstorage.o(i.DataStorage) refers to noretval__2sprintf.o(.text) for __2sprintf
    appstorage.o(i.DataStorage) refers to serial.o(i.UsartSend) for UsartSend
    appstorage.o(i.DataStorage) refers to ads1248.o(i.PT100TempProcess) for PT100TempProcess
    appstorage.o(i.DataStorage) refers to f2d.o(x$fpl$f2d) for __aeabi_f2d
    appstorage.o(i.GetHumidityTemperature) refers to _printf_pad.o(.text) for _printf_pre_padding
    appstorage.o(i.GetHumidityTemperature) refers to _printf_percent.o(.ARM.Collect$$_printf_percent$$00000000) for _printf_percent
    appstorage.o(i.GetHumidityTemperature) refers to _printf_f.o(.ARM.Collect$$_printf_percent$$00000003) for _printf_f
    appstorage.o(i.GetHumidityTemperature) refers to printf1.o(x$fpl$printf1) for _printf_fp_dec
    appstorage.o(i.GetHumidityTemperature) refers to am2305.o(i.AM2305_Run) for AM2305_Run
    appstorage.o(i.GetHumidityTemperature) refers to am2305.o(i.GetAm2305Data) for GetAm2305Data
    appstorage.o(i.GetHumidityTemperature) refers to dflt_clz.o(x$fpl$dfltu) for __aeabi_ui2d
    appstorage.o(i.GetHumidityTemperature) refers to ddiv.o(x$fpl$ddiv) for __aeabi_ddiv
    appstorage.o(i.GetHumidityTemperature) refers to d2f.o(x$fpl$d2f) for __aeabi_d2f
    appstorage.o(i.GetHumidityTemperature) refers to f2d.o(x$fpl$f2d) for __aeabi_f2d
    appstorage.o(i.GetHumidityTemperature) refers to noretval__2sprintf.o(.text) for __2sprintf
    appstorage.o(i.GetHumidityTemperature) refers to serial.o(i.UsartSend) for UsartSend
    appstorage.o(i.GetHumidityTemperature) refers to rt_memcpy_v6.o(.text) for __aeabi_memcpy
    use_no_semi_2.o(.text) refers (Special) to use_no_semi.o(.text) for __use_no_semihosting_swi
    malloc.o(.text) refers (Special) to hguard.o(.text) for __heap$guard
    malloc.o(.text) refers (Special) to init_alloc.o(.text) for _init_alloc
    malloc.o(.text) refers to rt_heap_descriptor_intlibspace.o(.text) for __rt_heap_descriptor
    malloc.o(.text) refers to heapstubs.o(.text) for __Heap_Alloc
    free.o(.text) refers (Special) to hguard.o(.text) for __heap$guard
    free.o(.text) refers to rt_heap_descriptor_intlibspace.o(.text) for __rt_heap_descriptor
    free.o(.text) refers to heapstubs.o(.text) for __Heap_Free
    h1_alloc.o(.text) refers (Special) to h1_init.o(.text) for __Heap_Initialize
    h1_alloc.o(.text) refers to rt_heap_descriptor_intlibspace.o(.text) for __rt_heap_descriptor
    h1_alloc.o(.text) refers to init_alloc.o(.text) for __Heap_Full
    h1_free.o(.text) refers to rt_heap_descriptor_intlibspace.o(.text) for __rt_heap_descriptor
    h1_alloc_mt.o(.text) refers (Special) to h1_init.o(.text) for __Heap_Initialize
    h1_alloc_mt.o(.text) refers to init_alloc.o(.text) for __Heap_Full
    h1_alloc_mt.o(.text) refers to rt_heap_descriptor_intlibspace.o(.text) for __rt_heap_descriptor
    h1_free_mt.o(.text) refers to rt_heap_descriptor_intlibspace.o(.text) for __rt_heap_descriptor
    heap2.o(i._FDIterate) refers to heap2.o(.constdata) for .constdata
    heap2.o(i.___Heap_ProvideMemory$realtime) refers to fdtree.o(i._FDTree_Delete) for _FDTree_Delete
    heap2.o(i.___Heap_ProvideMemory$realtime) refers to fdtree.o(i._FDTree_Insert) for _FDTree_Insert
    heap2.o(i.___Heap_Stats$realtime) refers to heap2.o(i._Heap2_StatsIterate) for _Heap2_StatsIterate
    heap2.o(i.___Heap_Valid$realtime) refers to heap2.o(i._FDIterate) for _FDIterate
    heap2.o(i.___Heap_Valid$realtime) refers to heap2.o(.constdata) for .constdata
    heap2.o(i._free$realtime) refers to rt_heap_descriptor_intlibspace.o(.text) for __rt_heap_descriptor
    heap2.o(i._free$realtime) refers to fdtree.o(i._FDTree_Delete) for _FDTree_Delete
    heap2.o(i._free$realtime) refers to fdtree.o(i._FDTree_Insert) for _FDTree_Insert
    heap2.o(i._malloc$realtime) refers to rt_heap_descriptor_intlibspace.o(.text) for __rt_heap_descriptor
    heap2.o(i._malloc$realtime) refers to fdtree.o(i._FDTree_FindFirst) for _FDTree_FindFirst
    heap2.o(i._malloc$realtime) refers to init_alloc.o(.text) for __Heap_Full
    heap2.o(i._malloc$realtime) refers to fdtree.o(i._FDTree_RemoveNode) for _FDTree_RemoveNode
    heap2.o(i._malloc$realtime) refers to fdtree.o(i._FDTree_Insert) for _FDTree_Insert
    heap2.o(i._posix_memalign$realtime) refers to rt_heap_descriptor_intlibspace.o(.text) for __rt_heap_descriptor
    heap2.o(i._posix_memalign$realtime) refers to fdtree.o(i._FDTree_FindFirst) for _FDTree_FindFirst
    heap2.o(i._posix_memalign$realtime) refers to init_alloc.o(.text) for __Heap_Full
    heap2.o(i._posix_memalign$realtime) refers to fdtree.o(i._FDTree_RemoveNode) for _FDTree_RemoveNode
    heap2.o(i._posix_memalign$realtime) refers to fdtree.o(i._FDTree_Insert) for _FDTree_Insert
    heap2.o(i._realloc$realtime) refers to rt_heap_descriptor_intlibspace.o(.text) for __rt_heap_descriptor
    heap2.o(i._realloc$realtime) refers to fdtree.o(i._FDTree_Insert) for _FDTree_Insert
    heap2.o(i._realloc$realtime) refers to h1_free.o(.text) for free
    heap2.o(i._realloc$realtime) refers to h1_alloc.o(.text) for malloc
    heap2.o(i._realloc$realtime) refers to fdtree.o(i._FDTree_Delete) for _FDTree_Delete
    heap2.o(i._realloc$realtime) refers to rt_memcpy_w.o(.text) for __aeabi_memcpy4
    heap2mt.o(i._FDIterate) refers to heap2mt.o(.constdata) for .constdata
    heap2mt.o(i.___Heap_Initialize$realtime$concurrent) refers to mutex_dummy.o(.text) for _mutex_initialize
    heap2mt.o(i.___Heap_ProvideMemory$realtime$concurrent) refers to fdtree.o(i._FDTree_Delete) for _FDTree_Delete
    heap2mt.o(i.___Heap_ProvideMemory$realtime$concurrent) refers to fdtree.o(i._FDTree_Insert) for _FDTree_Insert
    heap2mt.o(i.___Heap_Stats$realtime$concurrent) refers to heap2mt.o(i._Heap2_StatsIterate) for _Heap2_StatsIterate
    heap2mt.o(i.___Heap_Valid$realtime$concurrent) refers to heap2mt.o(i._FDIterate) for _FDIterate
    heap2mt.o(i.___Heap_Valid$realtime$concurrent) refers to heap2mt.o(.constdata) for .constdata
    heap2mt.o(i._free$realtime$concurrent) refers to rt_heap_descriptor_intlibspace.o(.text) for __rt_heap_descriptor
    heap2mt.o(i._free$realtime$concurrent) refers to fdtree.o(i._FDTree_Delete) for _FDTree_Delete
    heap2mt.o(i._free$realtime$concurrent) refers to fdtree.o(i._FDTree_Insert) for _FDTree_Insert
    heap2mt.o(i._malloc$realtime$concurrent) refers to rt_heap_descriptor_intlibspace.o(.text) for __rt_heap_descriptor
    heap2mt.o(i._malloc$realtime$concurrent) refers to fdtree.o(i._FDTree_FindFirst) for _FDTree_FindFirst
    heap2mt.o(i._malloc$realtime$concurrent) refers to init_alloc.o(.text) for __Heap_Full
    heap2mt.o(i._malloc$realtime$concurrent) refers to fdtree.o(i._FDTree_RemoveNode) for _FDTree_RemoveNode
    heap2mt.o(i._malloc$realtime$concurrent) refers to fdtree.o(i._FDTree_Insert) for _FDTree_Insert
    heap2mt.o(i._posix_memalign$realtime$concurrent) refers to rt_heap_descriptor_intlibspace.o(.text) for __rt_heap_descriptor
    heap2mt.o(i._posix_memalign$realtime$concurrent) refers to fdtree.o(i._FDTree_FindFirst) for _FDTree_FindFirst
    heap2mt.o(i._posix_memalign$realtime$concurrent) refers to init_alloc.o(.text) for __Heap_Full
    heap2mt.o(i._posix_memalign$realtime$concurrent) refers to fdtree.o(i._FDTree_RemoveNode) for _FDTree_RemoveNode
    heap2mt.o(i._posix_memalign$realtime$concurrent) refers to fdtree.o(i._FDTree_Insert) for _FDTree_Insert
    heap2mt.o(i._realloc$realtime$concurrent) refers to rt_heap_descriptor_intlibspace.o(.text) for __rt_heap_descriptor
    heap2mt.o(i._realloc$realtime$concurrent) refers to fdtree.o(i._FDTree_Insert) for _FDTree_Insert
    heap2mt.o(i._realloc$realtime$concurrent) refers to h1_free.o(.text) for free
    heap2mt.o(i._realloc$realtime$concurrent) refers to h1_alloc.o(.text) for malloc
    heap2mt.o(i._realloc$realtime$concurrent) refers to fdtree.o(i._FDTree_Delete) for _FDTree_Delete
    heap2mt.o(i._realloc$realtime$concurrent) refers to rt_memcpy_w.o(.text) for __aeabi_memcpy4
    __2printf.o(.text) refers to _printf_char_file.o(.text) for _printf_char_file
    __2printf.o(.text) refers to serial.o(.data) for __stdout
    __2sprintf.o(.text) refers to _printf_char_common.o(.text) for _printf_char_common
    __2sprintf.o(.text) refers to _sputc.o(.text) for _sputc
    noretval__2printf.o(.text) refers to _printf_char_file.o(.text) for _printf_char_file
    noretval__2printf.o(.text) refers to serial.o(.data) for __stdout
    noretval__2sprintf.o(.text) refers to _printf_char_common.o(.text) for _printf_char_common
    noretval__2sprintf.o(.text) refers to _sputc.o(.text) for _sputc
    __printf.o(.text) refers to _printf_percent.o(.ARM.Collect$$_printf_percent$$00000000) for _printf_percent
    _printf_str.o(.text) refers (Special) to _printf_char.o(.text) for _printf_cs_common
    _printf_str.o(.text) refers (Weak) to _printf_pad.o(.text) for _printf_pre_padding
    _printf_str.o(.text) refers (Weak) to _printf_pad.o(.text) for _printf_post_padding
    _printf_dec.o(.text) refers to _printf_intcommon.o(.text) for _printf_int_common
    _printf_hex_ll.o(.text) refers to _printf_intcommon.o(.text) for _printf_int_common
    _printf_hex_ll.o(.text) refers to _printf_hex_ll.o(.constdata) for .constdata
    _printf_hex_int.o(.text) refers to _printf_intcommon.o(.text) for _printf_int_common
    _printf_hex_int.o(.text) refers to _printf_hex_int.o(.constdata) for .constdata
    _printf_hex_int_ll.o(.text) refers to _printf_intcommon.o(.text) for _printf_int_common
    _printf_hex_int_ll.o(.text) refers to _printf_hex_int_ll.o(.constdata) for .constdata
    _printf_hex_ptr.o(.text) refers to _printf_intcommon.o(.text) for _printf_int_common
    _printf_hex_ptr.o(.text) refers to _printf_hex_ptr.o(.constdata) for .constdata
    _printf_hex_int_ptr.o(.text) refers to _printf_intcommon.o(.text) for _printf_int_common
    _printf_hex_int_ptr.o(.text) refers to _printf_hex_int_ptr.o(.constdata) for .constdata
    _printf_hex_ll_ptr.o(.text) refers to _printf_intcommon.o(.text) for _printf_int_common
    _printf_hex_ll_ptr.o(.text) refers to _printf_hex_ll_ptr.o(.constdata) for .constdata
    _printf_hex_int_ll_ptr.o(.text) refers to _printf_intcommon.o(.text) for _printf_int_common
    _printf_hex_int_ll_ptr.o(.text) refers to _printf_hex_int_ll_ptr.o(.constdata) for .constdata
    __printf_flags.o(.text) refers to _printf_percent.o(.ARM.Collect$$_printf_percent$$00000000) for _printf_percent
    __printf_flags.o(.text) refers to __printf_flags.o(.constdata) for .constdata
    __printf_ss.o(.text) refers to _printf_percent.o(.ARM.Collect$$_printf_percent$$00000000) for _printf_percent
    __printf_flags_ss.o(.text) refers to _printf_percent.o(.ARM.Collect$$_printf_percent$$00000000) for _printf_percent
    __printf_flags_ss.o(.text) refers to __printf_flags_ss.o(.constdata) for .constdata
    __printf_wp.o(.text) refers to __printf_wp.o(i._is_digit) for _is_digit
    __printf_wp.o(.text) refers to _printf_percent.o(.ARM.Collect$$_printf_percent$$00000000) for _printf_percent
    __printf_flags_wp.o(.text) refers to __printf_wp.o(i._is_digit) for _is_digit
    __printf_flags_wp.o(.text) refers to _printf_percent.o(.ARM.Collect$$_printf_percent$$00000000) for _printf_percent
    __printf_flags_wp.o(.text) refers to __printf_flags_wp.o(.constdata) for .constdata
    __printf_ss_wp.o(.text) refers to __printf_wp.o(i._is_digit) for _is_digit
    __printf_ss_wp.o(.text) refers to _printf_percent.o(.ARM.Collect$$_printf_percent$$00000000) for _printf_percent
    __printf_flags_ss_wp.o(.text) refers to __printf_wp.o(i._is_digit) for _is_digit
    __printf_flags_ss_wp.o(.text) refers to _printf_percent.o(.ARM.Collect$$_printf_percent$$00000000) for _printf_percent
    __printf_flags_ss_wp.o(.text) refers to __printf_flags_ss_wp.o(.constdata) for .constdata
    _printf_s.o(.ARM.Collect$$_printf_percent$$00000014) refers (Weak) to _printf_char.o(.text) for _printf_string
    _printf_x.o(.ARM.Collect$$_printf_percent$$0000000C) refers (Weak) to _printf_hex_int.o(.text) for _printf_int_hex
    _printf_d.o(.ARM.Collect$$_printf_percent$$00000009) refers (Weak) to _printf_dec.o(.text) for _printf_int_dec
    _printf_f.o(.ARM.Collect$$_printf_percent$$00000003) refers (Weak) to printf1.o(x$fpl$printf1) for _printf_fp_dec
    _printf_percent.o(.ARM.Collect$$_printf_percent$$00000000) refers (Special) to _printf_percent_end.o(.ARM.Collect$$_printf_percent$$00000017) for _printf_percent_end
    rt_memcpy_v6.o(.text) refers to rt_memcpy_w.o(.text) for __aeabi_memcpy4
    aeabi_memset.o(.text) refers to rt_memclr.o(.text) for _memset
    rt_memclr.o(.text) refers to rt_memclr_w.o(.text) for _memset_w
    __main.o(!!!main) refers to rtentry.o(.ARM.Collect$$rtentry$$00000000) for __rt_entry
    d2f.o(x$fpl$d2f) refers (Special) to usenofp.o(x$fpl$usenofp) for __I$use$fp
    d2f.o(x$fpl$d2f) refers to fretinf.o(x$fpl$fretinf) for __fpl_fretinf
    d2f.o(x$fpl$d2f) refers to dnaninf.o(x$fpl$dnaninf) for __fpl_dnaninf
    daddsub_clz.o(x$fpl$dadd) refers (Special) to usenofp.o(x$fpl$usenofp) for __I$use$fp
    daddsub_clz.o(x$fpl$dadd) refers to daddsub_clz.o(x$fpl$dsub) for _dsub1
    daddsub_clz.o(x$fpl$dadd) refers to dretinf.o(x$fpl$dretinf) for __fpl_dretinf
    daddsub_clz.o(x$fpl$dadd) refers to dnaninf.o(x$fpl$dnaninf) for __fpl_dnaninf
    daddsub_clz.o(x$fpl$drsb) refers (Special) to usenofp.o(x$fpl$usenofp) for __I$use$fp
    daddsub_clz.o(x$fpl$drsb) refers to daddsub_clz.o(x$fpl$dadd) for _dadd1
    daddsub_clz.o(x$fpl$drsb) refers to daddsub_clz.o(x$fpl$dsub) for _dsub1
    daddsub_clz.o(x$fpl$dsub) refers (Special) to usenofp.o(x$fpl$usenofp) for __I$use$fp
    daddsub_clz.o(x$fpl$dsub) refers to daddsub_clz.o(x$fpl$dadd) for _dadd1
    daddsub_clz.o(x$fpl$dsub) refers to dnaninf.o(x$fpl$dnaninf) for __fpl_dnaninf
    ddiv.o(x$fpl$drdiv) refers (Special) to usenofp.o(x$fpl$usenofp) for __I$use$fp
    ddiv.o(x$fpl$drdiv) refers to ddiv.o(x$fpl$ddiv) for ddiv_entry
    ddiv.o(x$fpl$ddiv) refers (Special) to usenofp.o(x$fpl$usenofp) for __I$use$fp
    ddiv.o(x$fpl$ddiv) refers to dretinf.o(x$fpl$dretinf) for __fpl_dretinf
    ddiv.o(x$fpl$ddiv) refers to dnaninf.o(x$fpl$dnaninf) for __fpl_dnaninf
    dfix.o(x$fpl$dfix) refers (Special) to usenofp.o(x$fpl$usenofp) for __I$use$fp
    dfix.o(x$fpl$dfix) refers to dnaninf.o(x$fpl$dnaninf) for __fpl_dnaninf
    dfix.o(x$fpl$dfixr) refers (Special) to usenofp.o(x$fpl$usenofp) for __I$use$fp
    dfix.o(x$fpl$dfixr) refers to dnaninf.o(x$fpl$dnaninf) for __fpl_dnaninf
    dflt_clz.o(x$fpl$dfltu) refers (Special) to usenofp.o(x$fpl$usenofp) for __I$use$fp
    dflt_clz.o(x$fpl$dflt) refers (Special) to usenofp.o(x$fpl$usenofp) for __I$use$fp
    dflt_clz.o(x$fpl$dfltn) refers (Special) to usenofp.o(x$fpl$usenofp) for __I$use$fp
    dleqf.o(x$fpl$dleqf) refers (Special) to usenofp.o(x$fpl$usenofp) for __I$use$fp
    dleqf.o(x$fpl$dleqf) refers to dnaninf.o(x$fpl$dnaninf) for __fpl_dnaninf
    dleqf.o(x$fpl$dleqf) refers to dcmpi.o(x$fpl$dcmpinf) for __fpl_dcmp_Inf
    dmul.o(x$fpl$dmul) refers (Special) to usenofp.o(x$fpl$usenofp) for __I$use$fp
    dmul.o(x$fpl$dmul) refers to dretinf.o(x$fpl$dretinf) for __fpl_dretinf
    dmul.o(x$fpl$dmul) refers to dnaninf.o(x$fpl$dnaninf) for __fpl_dnaninf
    drleqf.o(x$fpl$drleqf) refers (Special) to usenofp.o(x$fpl$usenofp) for __I$use$fp
    drleqf.o(x$fpl$drleqf) refers to dleqf.o(x$fpl$dleqf) for __fpl_dcmple_InfNaN
    f2d.o(x$fpl$f2d) refers (Special) to usenofp.o(x$fpl$usenofp) for __I$use$fp
    f2d.o(x$fpl$f2d) refers to fnaninf.o(x$fpl$fnaninf) for __fpl_fnaninf
    f2d.o(x$fpl$f2d) refers to dretinf.o(x$fpl$dretinf) for __fpl_dretinf
    printf1.o(x$fpl$printf1) refers to _printf_fp_dec.o(.text) for _printf_fp_dec_real
    scalbn.o(x$fpl$scalbn) refers (Special) to usenofp.o(x$fpl$usenofp) for __I$use$fp
    scalbn.o(x$fpl$scalbn) refers to dcheck1.o(x$fpl$dcheck1) for __fpl_dcheck_NaN1
    scalbnf.o(x$fpl$scalbnf) refers (Special) to usenofp.o(x$fpl$usenofp) for __I$use$fp
    scalbnf.o(x$fpl$scalbnf) refers to fcheck1.o(x$fpl$fcheck1) for __fpl_fcheck_NaN1
    sqrt.o(i.__softfp_sqrt) refers (Special) to usenofp.o(x$fpl$usenofp) for __I$use$fp
    sqrt.o(i.__softfp_sqrt) refers to dsqrt_noumaal.o(x$fpl$dsqrt) for _dsqrt
    sqrt.o(i.__softfp_sqrt) refers to _rserrno.o(.text) for __set_errno
    sqrt.o(i.sqrt) refers (Special) to usenofp.o(x$fpl$usenofp) for __I$use$fp
    sqrt.o(i.sqrt) refers to dsqrt_noumaal.o(x$fpl$dsqrt) for _dsqrt
    sqrt.o(i.sqrt) refers to _rserrno.o(.text) for __set_errno
    sqrt_x.o(i.____softfp_sqrt$lsc) refers (Special) to usenofp.o(x$fpl$usenofp) for __I$use$fp
    sqrt_x.o(i.____softfp_sqrt$lsc) refers to dleqf.o(x$fpl$dleqf) for __aeabi_cdcmple
    sqrt_x.o(i.____softfp_sqrt$lsc) refers to _rserrno.o(.text) for __set_errno
    sqrt_x.o(i.____softfp_sqrt$lsc) refers to dsqrt_noumaal.o(x$fpl$dsqrt) for _dsqrt
    sqrt_x.o(i.__sqrt$lsc) refers (Special) to usenofp.o(x$fpl$usenofp) for __I$use$fp
    sqrt_x.o(i.__sqrt$lsc) refers to dleqf.o(x$fpl$dleqf) for __aeabi_cdcmple
    sqrt_x.o(i.__sqrt$lsc) refers to _rserrno.o(.text) for __set_errno
    sqrt_x.o(i.__sqrt$lsc) refers to dsqrt_noumaal.o(x$fpl$dsqrt) for _dsqrt
    rtentry.o(.ARM.Collect$$rtentry$$00000000) refers (Special) to rtentry2.o(.ARM.Collect$$rtentry$$0000000A) for __rt_entry_li
    rtentry.o(.ARM.Collect$$rtentry$$00000000) refers (Special) to rtentry2.o(.ARM.Collect$$rtentry$$0000000D) for __rt_entry_main
    rtentry.o(.ARM.Collect$$rtentry$$00000000) refers (Special) to rtentry2.o(.ARM.Collect$$rtentry$$0000000C) for __rt_entry_postli_1
    rtentry.o(.ARM.Collect$$rtentry$$00000000) refers (Special) to rtentry2.o(.ARM.Collect$$rtentry$$00000009) for __rt_entry_postsh_1
    rtentry.o(.ARM.Collect$$rtentry$$00000000) refers (Special) to rtentry2.o(.ARM.Collect$$rtentry$$00000002) for __rt_entry_presh_1
    rtentry.o(.ARM.Collect$$rtentry$$00000000) refers (Special) to rtentry4.o(.ARM.Collect$$rtentry$$00000004) for __rt_entry_sh
    rt_heap_descriptor.o(.text) refers to rt_heap_descriptor.o(.bss) for __rt_heap_descriptor_data
    rt_heap_descriptor_intlibspace.o(.text) refers to libspace.o(.bss) for __libspace_start
    init_alloc.o(.text) refers (Special) to hguard.o(.text) for __heap$guard
    init_alloc.o(.text) refers (Special) to libinit2.o(.ARM.Collect$$libinit$$00000003) for __rt_lib_init_heap_2
    init_alloc.o(.text) refers (Special) to maybetermalloc1.o(.emb_text) for _maybe_terminate_alloc
    init_alloc.o(.text) refers to h1_extend.o(.text) for __Heap_ProvideMemory
    init_alloc.o(.text) refers to defsig_rtmem_outer.o(.text) for __rt_SIGRTMEM
    init_alloc.o(.text) refers to rt_heap_descriptor_intlibspace.o(.text) for __rt_heap_descriptor
    init_alloc.o(.text) refers to h1_init.o(.text) for __Heap_Initialize
    h1_init_mt.o(.text) refers to mutex_dummy.o(.text) for _mutex_initialize
    _rserrno.o(.text) refers to rt_errno_addr_intlibspace.o(.text) for __aeabi_errno_addr
    _printf_intcommon.o(.text) refers (Weak) to _printf_pad.o(.text) for _printf_pre_padding
    _printf_intcommon.o(.text) refers (Weak) to _printf_pad.o(.text) for _printf_pre_padding
    _printf_intcommon.o(.text) refers (Weak) to _printf_pad.o(.text) for _printf_post_padding
    _printf_fp_dec.o(.text) refers (Special) to usenofp.o(x$fpl$usenofp) for __I$use$fp
    _printf_fp_dec.o(.text) refers (Special) to lc_numeric_c.o(locale$$code) for _get_lc_numeric
    _printf_fp_dec.o(.text) refers to bigflt0.o(.text) for _btod_etento
    _printf_fp_dec.o(.text) refers to btod.o(CL$$btod_d2e) for _btod_d2e
    _printf_fp_dec.o(.text) refers to btod.o(CL$$btod_ediv) for _btod_ediv
    _printf_fp_dec.o(.text) refers to btod.o(CL$$btod_emul) for _btod_emul
    _printf_fp_dec.o(.text) refers to lludiv10.o(.text) for _ll_udiv10
    _printf_fp_dec.o(.text) refers to fpclassify.o(i.__ARM_fpclassify) for __ARM_fpclassify
    _printf_fp_dec.o(.text) refers to _printf_fp_infnan.o(.text) for _printf_fp_infnan
    _printf_fp_dec.o(.text) refers (Weak) to _printf_pad.o(.text) for _printf_pre_padding
    _printf_fp_dec.o(.text) refers (Weak) to _printf_pad.o(.text) for _printf_pre_padding
    _printf_fp_dec.o(.text) refers to rt_locale_intlibspace.o(.text) for __rt_locale
    _printf_fp_dec.o(.text) refers (Weak) to _printf_pad.o(.text) for _printf_post_padding
    _printf_char_common.o(.text) refers to __printf_wp.o(.text) for __printf
    _printf_char.o(.text) refers (Weak) to _printf_str.o(.text) for _printf_str
    _printf_char_file.o(.text) refers to _printf_char_common.o(.text) for _printf_char_common
    _printf_char_file.o(.text) refers to ferror.o(.text) for ferror
    _printf_char_file.o(.text) refers to serial.o(i.fputc) for fputc
    _get_argv.o(.text) refers (Special) to hrguard.o(.text) for __heap_region$guard
    _get_argv.o(.text) refers to h1_alloc.o(.text) for malloc
    _get_argv.o(.text) refers to defsig_rtmem_outer.o(.text) for __rt_SIGRTMEM
    _get_argv.o(.text) refers to sys_command.o(.text) for _sys_command_string
    libinit2.o(.ARM.Collect$$libinit$$00000003) refers (Weak) to init_alloc.o(.text) for _init_alloc
    libinit2.o(.ARM.Collect$$libinit$$0000000D) refers (Weak) to rt_locale_intlibspace.o(.text) for __rt_locale
    libinit2.o(.ARM.Collect$$libinit$$0000000E) refers to libinit2.o(.ARM.Collect$$libinit$$0000000D) for .ARM.Collect$$libinit$$0000000D
    libinit2.o(.ARM.Collect$$libinit$$00000010) refers to libinit2.o(.ARM.Collect$$libinit$$0000000D) for .ARM.Collect$$libinit$$0000000D
    libinit2.o(.ARM.Collect$$libinit$$00000012) refers to libinit2.o(.ARM.Collect$$libinit$$0000000D) for .ARM.Collect$$libinit$$0000000D
    libinit2.o(.ARM.Collect$$libinit$$00000014) refers to libinit2.o(.ARM.Collect$$libinit$$0000000D) for .ARM.Collect$$libinit$$0000000D
    libinit2.o(.ARM.Collect$$libinit$$00000014) refers (Weak) to lc_numeric_c.o(locale$$code) for _get_lc_numeric
    libinit2.o(.ARM.Collect$$libinit$$00000016) refers to libinit2.o(.ARM.Collect$$libinit$$0000000D) for .ARM.Collect$$libinit$$0000000D
    libinit2.o(.ARM.Collect$$libinit$$00000024) refers to argv_veneer.o(.emb_text) for __ARM_argv_veneer
    libinit2.o(.ARM.Collect$$libinit$$00000025) refers to argv_veneer.o(.emb_text) for __ARM_argv_veneer
    dcheck1.o(x$fpl$dcheck1) refers (Special) to usenofp.o(x$fpl$usenofp) for __I$use$fp
    dcheck1.o(x$fpl$dcheck1) refers to retnan.o(x$fpl$retnan) for __fpl_return_NaN
    dcmpi.o(x$fpl$dcmpinf) refers (Special) to usenofp.o(x$fpl$usenofp) for __I$use$fp
    dnaninf.o(x$fpl$dnaninf) refers (Special) to usenofp.o(x$fpl$usenofp) for __I$use$fp
    dretinf.o(x$fpl$dretinf) refers (Special) to usenofp.o(x$fpl$usenofp) for __I$use$fp
    dsqrt_noumaal.o(x$fpl$dsqrt) refers (Special) to usenofp.o(x$fpl$usenofp) for __I$use$fp
    dsqrt_noumaal.o(x$fpl$dsqrt) refers to dnaninf.o(x$fpl$dnaninf) for __fpl_dnaninf
    fcheck1.o(x$fpl$fcheck1) refers (Special) to usenofp.o(x$fpl$usenofp) for __I$use$fp
    fcheck1.o(x$fpl$fcheck1) refers to retnan.o(x$fpl$retnan) for __fpl_return_NaN
    fnaninf.o(x$fpl$fnaninf) refers (Special) to usenofp.o(x$fpl$usenofp) for __I$use$fp
    fretinf.o(x$fpl$fretinf) refers (Special) to usenofp.o(x$fpl$usenofp) for __I$use$fp
    sys_command.o(.text) refers (Special) to use_no_semi.o(.text) for __I$use$semihosting
    sys_command.o(.text) refers (Special) to indicate_semi.o(.text) for __semihosting_library_function
    libspace.o(.text) refers to libspace.o(.bss) for __libspace_start
    rtentry2.o(.ARM.Collect$$rtentry$$00000008) refers to boardinit2.o(.text) for _platform_post_stackheap_init
    rtentry2.o(.ARM.Collect$$rtentry$$0000000A) refers to libinit.o(.ARM.Collect$$libinit$$00000000) for __rt_lib_init
    rtentry2.o(.ARM.Collect$$rtentry$$0000000B) refers to boardinit3.o(.text) for _platform_post_lib_init
    rtentry2.o(.ARM.Collect$$rtentry$$0000000D) refers to main.o(i.main) for main
    rtentry2.o(.ARM.Collect$$rtentry$$0000000D) refers to exit.o(.text) for exit
    rtentry2.o(.ARM.exidx) refers to rtentry2.o(.ARM.Collect$$rtentry$$00000001) for .ARM.Collect$$rtentry$$00000001
    rtentry2.o(.ARM.exidx) refers to rtentry2.o(.ARM.Collect$$rtentry$$00000008) for .ARM.Collect$$rtentry$$00000008
    rtentry2.o(.ARM.exidx) refers to rtentry2.o(.ARM.Collect$$rtentry$$0000000A) for .ARM.Collect$$rtentry$$0000000A
    rtentry2.o(.ARM.exidx) refers to rtentry2.o(.ARM.Collect$$rtentry$$0000000B) for .ARM.Collect$$rtentry$$0000000B
    rtentry2.o(.ARM.exidx) refers to rtentry2.o(.ARM.Collect$$rtentry$$0000000D) for .ARM.Collect$$rtentry$$0000000D
    rtentry4.o(.ARM.Collect$$rtentry$$00000004) refers to sys_stackheap_outer.o(.text) for __user_setup_stackheap
    rtentry4.o(.ARM.exidx) refers to rtentry4.o(.ARM.Collect$$rtentry$$00000004) for .ARM.Collect$$rtentry$$00000004
    rt_locale.o(.text) refers to rt_locale.o(.bss) for __rt_locale_data
    rt_locale_intlibspace.o(.text) refers to libspace.o(.bss) for __libspace_start
    rt_errno_addr.o(.text) refers to rt_errno_addr.o(.bss) for __aeabi_errno_addr_data
    rt_errno_addr_intlibspace.o(.text) refers to libspace.o(.bss) for __libspace_start
    maybetermalloc2.o(.emb_text) refers (Special) to term_alloc.o(.text) for _terminate_alloc
    h1_extend.o(.text) refers to h1_free.o(.text) for free
    h1_extend_mt.o(.text) refers to h1_free_mt.o(.text) for _free_internal
    _printf_fp_infnan.o(.text) refers (Weak) to _printf_pad.o(.text) for _printf_pre_padding
    _printf_fp_infnan.o(.text) refers (Weak) to _printf_pad.o(.text) for _printf_post_padding
    bigflt0.o(.text) refers (Special) to usenofp.o(x$fpl$usenofp) for __I$use$fp
    bigflt0.o(.text) refers to btod.o(CL$$btod_emul) for _btod_emul
    bigflt0.o(.text) refers to btod.o(CL$$btod_ediv) for _btod_ediv
    bigflt0.o(.text) refers to bigflt0.o(.constdata) for .constdata
    bigflt0.o(.constdata) refers (Special) to usenofp.o(x$fpl$usenofp) for __I$use$fp
    btod.o(CL$$btod_d2e) refers (Special) to usenofp.o(x$fpl$usenofp) for __I$use$fp
    btod.o(CL$$btod_d2e) refers to btod.o(CL$$btod_d2e_norm_op1) for _d2e_norm_op1
    btod.o(CL$$btod_d2e_norm_op1) refers (Special) to usenofp.o(x$fpl$usenofp) for __I$use$fp
    btod.o(CL$$btod_d2e_norm_op1) refers to btod.o(CL$$btod_d2e_denorm_low) for _d2e_denorm_low
    btod.o(CL$$btod_d2e_denorm_low) refers (Special) to usenofp.o(x$fpl$usenofp) for __I$use$fp
    btod.o(CL$$btod_emul) refers (Special) to usenofp.o(x$fpl$usenofp) for __I$use$fp
    btod.o(CL$$btod_emul) refers to btod.o(CL$$btod_mult_common) for __btod_mult_common
    btod.o(CL$$btod_emul) refers to btod.o(CL$$btod_e2e) for _e2e
    btod.o(CL$$btod_ediv) refers (Special) to usenofp.o(x$fpl$usenofp) for __I$use$fp
    btod.o(CL$$btod_ediv) refers to btod.o(CL$$btod_div_common) for __btod_div_common
    btod.o(CL$$btod_ediv) refers to btod.o(CL$$btod_e2e) for _e2e
    btod.o(CL$$btod_emuld) refers (Special) to usenofp.o(x$fpl$usenofp) for __I$use$fp
    btod.o(CL$$btod_emuld) refers to btod.o(CL$$btod_mult_common) for __btod_mult_common
    btod.o(CL$$btod_emuld) refers to btod.o(CL$$btod_e2d) for _e2d
    btod.o(CL$$btod_edivd) refers (Special) to usenofp.o(x$fpl$usenofp) for __I$use$fp
    btod.o(CL$$btod_edivd) refers to btod.o(CL$$btod_div_common) for __btod_div_common
    btod.o(CL$$btod_edivd) refers to btod.o(CL$$btod_e2d) for _e2d
    btod.o(CL$$btod_e2e) refers (Special) to usenofp.o(x$fpl$usenofp) for __I$use$fp
    btod.o(CL$$btod_e2d) refers (Special) to usenofp.o(x$fpl$usenofp) for __I$use$fp
    btod.o(CL$$btod_e2d) refers to btod.o(CL$$btod_e2e) for _e2e
    btod.o(CL$$btod_mult_common) refers (Special) to usenofp.o(x$fpl$usenofp) for __I$use$fp
    btod.o(CL$$btod_div_common) refers (Special) to usenofp.o(x$fpl$usenofp) for __I$use$fp
    lc_numeric_c.o(locale$$data) refers (Special) to libinit2.o(.ARM.Collect$$libinit$$00000014) for __rt_lib_init_lc_numeric_2
    lc_numeric_c.o(locale$$code) refers (Special) to libinit2.o(.ARM.Collect$$libinit$$00000014) for __rt_lib_init_lc_numeric_2
    lc_numeric_c.o(locale$$code) refers to strcmpv7m.o(.text) for strcmp
    lc_numeric_c.o(locale$$code) refers to lc_numeric_c.o(locale$$data) for __lcnum_c_name
    defsig_rtmem_outer.o(.text) refers to defsig_rtmem_inner.o(.text) for __rt_SIGRTMEM_inner
    defsig_rtmem_outer.o(.text) refers to defsig_exit.o(.text) for __sig_exit
    defsig_rtmem_formal.o(.text) refers to rt_raise.o(.text) for __rt_raise
    heapauxa.o(.text) refers to heapauxa.o(.data) for .data
    argv_veneer.o(.emb_text) refers to no_argv.o(.text) for __ARM_get_argv
    istatus.o(x$fpl$ieeestatus) refers (Special) to usenofp.o(x$fpl$usenofp) for __I$use$fp
    retnan.o(x$fpl$retnan) refers (Special) to usenofp.o(x$fpl$usenofp) for __I$use$fp
    retnan.o(x$fpl$retnan) refers to trapv.o(x$fpl$trapveneer) for __fpl_cmpreturn
    fpclassify.o(i.__ARM_fpclassify) refers (Special) to usenofp.o(x$fpl$usenofp) for __I$use$fp
    sys_stackheap_outer.o(.text) refers to libspace.o(.text) for __user_perproc_libspace
    sys_stackheap_outer.o(.text) refers to startup_stm32f10x_md.o(.text) for __user_initial_stackheap
    rt_raise.o(.text) refers to __raise.o(.text) for __raise
    rt_raise.o(.text) refers to serial.o(i._sys_exit) for _sys_exit
    term_alloc.o(.text) refers (Special) to libshutdown2.o(.ARM.Collect$$libshutdown$$0000000D) for __rt_lib_shutdown_heap_2
    term_alloc.o(.text) refers to rt_heap_descriptor_intlibspace.o(.text) for __rt_heap_descriptor
    term_alloc.o(.text) refers to h1_final.o(.text) for __Heap_Finalize
    exit.o(.text) refers to rtexit.o(.ARM.Collect$$rtexit$$00000000) for __rt_exit
    defsig_exit.o(.text) refers to serial.o(i._sys_exit) for _sys_exit
    defsig_rtmem_inner.o(.text) refers to defsig_general.o(.text) for __default_signal_display
    _get_argv_nomalloc.o(.text) refers (Special) to hrguard.o(.text) for __heap_region$guard
    _get_argv_nomalloc.o(.text) refers to defsig_rtmem_outer.o(.text) for __rt_SIGRTMEM
    _get_argv_nomalloc.o(.text) refers to sys_command.o(.text) for _sys_command_string
    libinit.o(.ARM.Collect$$libinit$$00000000) refers (Special) to libinit2.o(.ARM.Collect$$libinit$$0000002C) for __rt_lib_init_alloca_1
    libinit.o(.ARM.Collect$$libinit$$00000000) refers (Special) to libinit2.o(.ARM.Collect$$libinit$$0000002A) for __rt_lib_init_argv_1
    libinit.o(.ARM.Collect$$libinit$$00000000) refers (Special) to libinit2.o(.ARM.Collect$$libinit$$00000019) for __rt_lib_init_atexit_1
    libinit.o(.ARM.Collect$$libinit$$00000000) refers (Special) to libinit2.o(.ARM.Collect$$libinit$$0000001F) for __rt_lib_init_clock_1
    libinit.o(.ARM.Collect$$libinit$$00000000) refers (Special) to libinit2.o(.ARM.Collect$$libinit$$00000030) for __rt_lib_init_cpp_1
    libinit.o(.ARM.Collect$$libinit$$00000000) refers (Special) to libinit2.o(.ARM.Collect$$libinit$$0000002E) for __rt_lib_init_exceptions_1
    libinit.o(.ARM.Collect$$libinit$$00000000) refers (Special) to libinit2.o(.ARM.Collect$$libinit$$00000002) for __rt_lib_init_fp_1
    libinit.o(.ARM.Collect$$libinit$$00000000) refers (Special) to libinit2.o(.ARM.Collect$$libinit$$0000001D) for __rt_lib_init_fp_trap_1
    libinit.o(.ARM.Collect$$libinit$$00000000) refers (Special) to libinit2.o(.ARM.Collect$$libinit$$00000021) for __rt_lib_init_getenv_1
    libinit.o(.ARM.Collect$$libinit$$00000000) refers (Special) to libinit2.o(.ARM.Collect$$libinit$$00000008) for __rt_lib_init_heap_1
    libinit.o(.ARM.Collect$$libinit$$00000000) refers (Special) to libinit2.o(.ARM.Collect$$libinit$$0000000F) for __rt_lib_init_lc_collate_1
    libinit.o(.ARM.Collect$$libinit$$00000000) refers (Special) to libinit2.o(.ARM.Collect$$libinit$$00000011) for __rt_lib_init_lc_ctype_1
    libinit.o(.ARM.Collect$$libinit$$00000000) refers (Special) to libinit2.o(.ARM.Collect$$libinit$$00000013) for __rt_lib_init_lc_monetary_1
    libinit.o(.ARM.Collect$$libinit$$00000000) refers (Special) to libinit2.o(.ARM.Collect$$libinit$$00000015) for __rt_lib_init_lc_numeric_1
    libinit.o(.ARM.Collect$$libinit$$00000000) refers (Special) to libinit2.o(.ARM.Collect$$libinit$$00000017) for __rt_lib_init_lc_time_1
    libinit.o(.ARM.Collect$$libinit$$00000000) refers (Special) to libinit2.o(.ARM.Collect$$libinit$$0000000C) for __rt_lib_init_rand_1
    libinit.o(.ARM.Collect$$libinit$$00000000) refers (Special) to libinit2.o(.ARM.Collect$$libinit$$00000031) for __rt_lib_init_return
    libinit.o(.ARM.Collect$$libinit$$00000000) refers (Special) to libinit2.o(.ARM.Collect$$libinit$$0000001B) for __rt_lib_init_signal_1
    libinit.o(.ARM.Collect$$libinit$$00000000) refers (Special) to libinit2.o(.ARM.Collect$$libinit$$00000023) for __rt_lib_init_stdio_1
    libinit.o(.ARM.Collect$$libinit$$00000000) refers (Special) to libinit2.o(.ARM.Collect$$libinit$$0000000A) for __rt_lib_init_user_alloc_1
    trapv.o(x$fpl$trapveneer) refers (Special) to usenofp.o(x$fpl$usenofp) for __I$use$fp
    rtexit.o(.ARM.Collect$$rtexit$$00000000) refers (Special) to rtexit2.o(.ARM.Collect$$rtexit$$00000004) for __rt_exit_exit
    rtexit.o(.ARM.Collect$$rtexit$$00000000) refers (Special) to rtexit2.o(.ARM.Collect$$rtexit$$00000003) for __rt_exit_ls
    rtexit.o(.ARM.Collect$$rtexit$$00000000) refers (Special) to rtexit2.o(.ARM.Collect$$rtexit$$00000002) for __rt_exit_prels_1
    rtexit.o(.ARM.exidx) refers (Special) to rtexit2.o(.ARM.Collect$$rtexit$$00000004) for __rt_exit_exit
    rtexit.o(.ARM.exidx) refers (Special) to rtexit2.o(.ARM.Collect$$rtexit$$00000003) for __rt_exit_ls
    rtexit.o(.ARM.exidx) refers (Special) to rtexit2.o(.ARM.Collect$$rtexit$$00000002) for __rt_exit_prels_1
    rtexit.o(.ARM.exidx) refers to rtexit.o(.ARM.Collect$$rtexit$$00000000) for .ARM.Collect$$rtexit$$00000000
    __raise.o(.text) refers to defsig.o(CL$$defsig) for __default_signal_handler
    defsig_general.o(.text) refers to serial.o(i._ttywrch) for _ttywrch
    libshutdown2.o(.ARM.Collect$$libshutdown$$0000000C) refers (Weak) to term_alloc.o(.text) for _terminate_alloc
    rtexit2.o(.ARM.Collect$$rtexit$$00000003) refers to libshutdown.o(.ARM.Collect$$libshutdown$$00000000) for __rt_lib_shutdown
    rtexit2.o(.ARM.Collect$$rtexit$$00000004) refers to serial.o(i._sys_exit) for _sys_exit
    rtexit2.o(.ARM.exidx) refers to rtexit2.o(.ARM.Collect$$rtexit$$00000001) for .ARM.Collect$$rtexit$$00000001
    rtexit2.o(.ARM.exidx) refers to rtexit2.o(.ARM.Collect$$rtexit$$00000003) for .ARM.Collect$$rtexit$$00000003
    rtexit2.o(.ARM.exidx) refers to rtexit2.o(.ARM.Collect$$rtexit$$00000004) for .ARM.Collect$$rtexit$$00000004
    defsig.o(CL$$defsig) refers to defsig_rtmem_inner.o(.text) for __rt_SIGRTMEM_inner
    defsig_abrt_inner.o(.text) refers to defsig_general.o(.text) for __default_signal_display
    defsig_fpe_inner.o(.text) refers to defsig_general.o(.text) for __default_signal_display
    defsig_rtred_inner.o(.text) refers to defsig_general.o(.text) for __default_signal_display
    defsig_stak_inner.o(.text) refers to defsig_general.o(.text) for __default_signal_display
    defsig_pvfn_inner.o(.text) refers to defsig_general.o(.text) for __default_signal_display
    defsig_cppl_inner.o(.text) refers to defsig_general.o(.text) for __default_signal_display
    defsig_segv_inner.o(.text) refers to defsig_general.o(.text) for __default_signal_display
    defsig_other.o(.text) refers to defsig_general.o(.text) for __default_signal_display
    libshutdown.o(.ARM.Collect$$libshutdown$$00000000) refers (Special) to libshutdown2.o(.ARM.Collect$$libshutdown$$00000006) for __rt_lib_shutdown_fp_trap_1
    libshutdown.o(.ARM.Collect$$libshutdown$$00000000) refers (Special) to libshutdown2.o(.ARM.Collect$$libshutdown$$0000000E) for __rt_lib_shutdown_heap_1
    libshutdown.o(.ARM.Collect$$libshutdown$$00000000) refers (Special) to libshutdown2.o(.ARM.Collect$$libshutdown$$0000000F) for __rt_lib_shutdown_return
    libshutdown.o(.ARM.Collect$$libshutdown$$00000000) refers (Special) to libshutdown2.o(.ARM.Collect$$libshutdown$$00000009) for __rt_lib_shutdown_signal_1
    libshutdown.o(.ARM.Collect$$libshutdown$$00000000) refers (Special) to libshutdown2.o(.ARM.Collect$$libshutdown$$00000003) for __rt_lib_shutdown_stdio_1
    libshutdown.o(.ARM.Collect$$libshutdown$$00000000) refers (Special) to libshutdown2.o(.ARM.Collect$$libshutdown$$0000000B) for __rt_lib_shutdown_user_alloc_1


==============================================================================

Removing Unused input sections from the image.

    Removing misc.o(i.NVIC_PriorityGroupConfig), (20 bytes).
    Removing misc.o(i.NVIC_SetVectorTable), (20 bytes).
    Removing misc.o(i.NVIC_SystemLPConfig), (24 bytes).
    Removing misc.o(i.SysTick_CLKSourceConfig), (24 bytes).
    Removing stm32f10x_adc.o(i.ADC_AnalogWatchdogCmd), (16 bytes).
    Removing stm32f10x_adc.o(i.ADC_AnalogWatchdogSingleChannelConfig), (12 bytes).
    Removing stm32f10x_adc.o(i.ADC_AnalogWatchdogThresholdsConfig), (6 bytes).
    Removing stm32f10x_adc.o(i.ADC_AutoInjectedConvCmd), (20 bytes).
    Removing stm32f10x_adc.o(i.ADC_ClearFlag), (6 bytes).
    Removing stm32f10x_adc.o(i.ADC_ClearITPendingBit), (8 bytes).
    Removing stm32f10x_adc.o(i.ADC_DMACmd), (20 bytes).
    Removing stm32f10x_adc.o(i.ADC_DiscModeChannelCountConfig), (16 bytes).
    Removing stm32f10x_adc.o(i.ADC_DiscModeCmd), (20 bytes).
    Removing stm32f10x_adc.o(i.ADC_ExternalTrigConvCmd), (20 bytes).
    Removing stm32f10x_adc.o(i.ADC_ExternalTrigInjectedConvCmd), (20 bytes).
    Removing stm32f10x_adc.o(i.ADC_ExternalTrigInjectedConvConfig), (12 bytes).
    Removing stm32f10x_adc.o(i.ADC_GetDualModeConversionValue), (12 bytes).
    Removing stm32f10x_adc.o(i.ADC_GetITStatus), (28 bytes).
    Removing stm32f10x_adc.o(i.ADC_GetInjectedConversionValue), (14 bytes).
    Removing stm32f10x_adc.o(i.ADC_GetSoftwareStartConvStatus), (14 bytes).
    Removing stm32f10x_adc.o(i.ADC_GetSoftwareStartInjectedConvCmdStatus), (14 bytes).
    Removing stm32f10x_adc.o(i.ADC_ITConfig), (18 bytes).
    Removing stm32f10x_adc.o(i.ADC_InjectedChannelConfig), (74 bytes).
    Removing stm32f10x_adc.o(i.ADC_InjectedDiscModeCmd), (20 bytes).
    Removing stm32f10x_adc.o(i.ADC_InjectedSequencerLengthConfig), (16 bytes).
    Removing stm32f10x_adc.o(i.ADC_SetInjectedOffset), (10 bytes).
    Removing stm32f10x_adc.o(i.ADC_SoftwareStartInjectedConvCmd), (20 bytes).
    Removing stm32f10x_adc.o(i.ADC_StructInit), (18 bytes).
    Removing stm32f10x_adc.o(i.ADC_TempSensorVrefintCmd), (28 bytes).
    Removing stm32f10x_bkp.o(i.BKP_ClearFlag), (16 bytes).
    Removing stm32f10x_bkp.o(i.BKP_ClearITPendingBit), (16 bytes).
    Removing stm32f10x_bkp.o(i.BKP_GetFlagStatus), (12 bytes).
    Removing stm32f10x_bkp.o(i.BKP_GetITStatus), (12 bytes).
    Removing stm32f10x_bkp.o(i.BKP_ITConfig), (12 bytes).
    Removing stm32f10x_bkp.o(i.BKP_RTCOutputConfig), (20 bytes).
    Removing stm32f10x_bkp.o(i.BKP_SetRTCCalibrationValue), (20 bytes).
    Removing stm32f10x_bkp.o(i.BKP_TamperPinCmd), (12 bytes).
    Removing stm32f10x_bkp.o(i.BKP_TamperPinLevelConfig), (12 bytes).
    Removing stm32f10x_can.o(i.CAN_CancelTransmit), (36 bytes).
    Removing stm32f10x_can.o(i.CAN_ClearFlag), (48 bytes).
    Removing stm32f10x_can.o(i.CAN_ClearITPendingBit), (120 bytes).
    Removing stm32f10x_can.o(i.CAN_DBGFreeze), (20 bytes).
    Removing stm32f10x_can.o(i.CAN_DeInit), (44 bytes).
    Removing stm32f10x_can.o(i.CAN_FIFORelease), (22 bytes).
    Removing stm32f10x_can.o(i.CAN_FilterInit), (196 bytes).
    Removing stm32f10x_can.o(i.CAN_GetFlagStatus), (52 bytes).
    Removing stm32f10x_can.o(i.CAN_GetITStatus), (168 bytes).
    Removing stm32f10x_can.o(i.CAN_GetLSBTransmitErrorCounter), (8 bytes).
    Removing stm32f10x_can.o(i.CAN_GetLastErrorCode), (10 bytes).
    Removing stm32f10x_can.o(i.CAN_GetReceiveErrorCounter), (6 bytes).
    Removing stm32f10x_can.o(i.CAN_ITConfig), (16 bytes).
    Removing stm32f10x_can.o(i.CAN_Init), (232 bytes).
    Removing stm32f10x_can.o(i.CAN_MessagePending), (22 bytes).
    Removing stm32f10x_can.o(i.CAN_OperatingModeRequest), (140 bytes).
    Removing stm32f10x_can.o(i.CAN_Receive), (124 bytes).
    Removing stm32f10x_can.o(i.CAN_SlaveStartBank), (44 bytes).
    Removing stm32f10x_can.o(i.CAN_Sleep), (30 bytes).
    Removing stm32f10x_can.o(i.CAN_StructInit), (32 bytes).
    Removing stm32f10x_can.o(i.CAN_TTComModeCmd), (90 bytes).
    Removing stm32f10x_can.o(i.CAN_Transmit), (152 bytes).
    Removing stm32f10x_can.o(i.CAN_TransmitStatus), (108 bytes).
    Removing stm32f10x_can.o(i.CAN_WakeUp), (42 bytes).
    Removing stm32f10x_can.o(i.CheckITStatus), (12 bytes).
    Removing stm32f10x_cec.o(i.CEC_ClearFlag), (32 bytes).
    Removing stm32f10x_cec.o(i.CEC_ClearITPendingBit), (32 bytes).
    Removing stm32f10x_cec.o(i.CEC_Cmd), (28 bytes).
    Removing stm32f10x_cec.o(i.CEC_DeInit), (24 bytes).
    Removing stm32f10x_cec.o(i.CEC_EndOfMessageCmd), (12 bytes).
    Removing stm32f10x_cec.o(i.CEC_GetFlagStatus), (36 bytes).
    Removing stm32f10x_cec.o(i.CEC_GetITStatus), (36 bytes).
    Removing stm32f10x_cec.o(i.CEC_ITConfig), (12 bytes).
    Removing stm32f10x_cec.o(i.CEC_Init), (24 bytes).
    Removing stm32f10x_cec.o(i.CEC_OwnAddressConfig), (12 bytes).
    Removing stm32f10x_cec.o(i.CEC_ReceiveDataByte), (12 bytes).
    Removing stm32f10x_cec.o(i.CEC_SendDataByte), (12 bytes).
    Removing stm32f10x_cec.o(i.CEC_SetPrescaler), (12 bytes).
    Removing stm32f10x_cec.o(i.CEC_StartOfMessage), (12 bytes).
    Removing stm32f10x_crc.o(i.CRC_CalcCRC), (12 bytes).
    Removing stm32f10x_crc.o(i.CRC_GetCRC), (12 bytes).
    Removing stm32f10x_crc.o(i.CRC_GetIDRegister), (12 bytes).
    Removing stm32f10x_crc.o(i.CRC_SetIDRegister), (12 bytes).
    Removing stm32f10x_dac.o(i.DAC_Cmd), (24 bytes).
    Removing stm32f10x_dac.o(i.DAC_DMACmd), (24 bytes).
    Removing stm32f10x_dac.o(i.DAC_DeInit), (24 bytes).
    Removing stm32f10x_dac.o(i.DAC_DualSoftwareTriggerCmd), (28 bytes).
    Removing stm32f10x_dac.o(i.DAC_GetDataOutputValue), (24 bytes).
    Removing stm32f10x_dac.o(i.DAC_Init), (40 bytes).
    Removing stm32f10x_dac.o(i.DAC_SetChannel1Data), (20 bytes).
    Removing stm32f10x_dac.o(i.DAC_SetChannel2Data), (20 bytes).
    Removing stm32f10x_dac.o(i.DAC_SetDualChannelData), (28 bytes).
    Removing stm32f10x_dac.o(i.DAC_SoftwareTriggerCmd), (28 bytes).
    Removing stm32f10x_dac.o(i.DAC_StructInit), (12 bytes).
    Removing stm32f10x_dac.o(i.DAC_WaveGenerationCmd), (24 bytes).
    Removing stm32f10x_dbgmcu.o(i.DBGMCU_Config), (24 bytes).
    Removing stm32f10x_dbgmcu.o(i.DBGMCU_GetDEVID), (16 bytes).
    Removing stm32f10x_dbgmcu.o(i.DBGMCU_GetREVID), (12 bytes).
    Removing stm32f10x_dma.o(i.DMA_ClearFlag), (24 bytes).
    Removing stm32f10x_dma.o(i.DMA_ClearITPendingBit), (24 bytes).
    Removing stm32f10x_dma.o(i.DMA_Cmd), (22 bytes).
    Removing stm32f10x_dma.o(i.DMA_DeInit), (228 bytes).
    Removing stm32f10x_dma.o(i.DMA_GetCurrDataCounter), (6 bytes).
    Removing stm32f10x_dma.o(i.DMA_GetFlagStatus), (32 bytes).
    Removing stm32f10x_dma.o(i.DMA_GetITStatus), (32 bytes).
    Removing stm32f10x_dma.o(i.DMA_ITConfig), (16 bytes).
    Removing stm32f10x_dma.o(i.DMA_Init), (58 bytes).
    Removing stm32f10x_dma.o(i.DMA_SetCurrDataCounter), (4 bytes).
    Removing stm32f10x_dma.o(i.DMA_StructInit), (26 bytes).
    Removing stm32f10x_exti.o(i.EXTI_ClearFlag), (12 bytes).
    Removing stm32f10x_exti.o(i.EXTI_ClearITPendingBit), (12 bytes).
    Removing stm32f10x_exti.o(i.EXTI_DeInit), (36 bytes).
    Removing stm32f10x_exti.o(i.EXTI_GenerateSWInterrupt), (16 bytes).
    Removing stm32f10x_exti.o(i.EXTI_GetFlagStatus), (20 bytes).
    Removing stm32f10x_exti.o(i.EXTI_GetITStatus), (32 bytes).
    Removing stm32f10x_exti.o(i.EXTI_Init), (112 bytes).
    Removing stm32f10x_exti.o(i.EXTI_StructInit), (14 bytes).
    Removing stm32f10x_flash.o(i.FLASH_ClearFlag), (12 bytes).
    Removing stm32f10x_flash.o(i.FLASH_EnableWriteProtection), (172 bytes).
    Removing stm32f10x_flash.o(i.FLASH_EraseAllBank1Pages), (56 bytes).
    Removing stm32f10x_flash.o(i.FLASH_EraseAllPages), (56 bytes).
    Removing stm32f10x_flash.o(i.FLASH_EraseOptionBytes), (124 bytes).
    Removing stm32f10x_flash.o(i.FLASH_GetFlagStatus), (32 bytes).
    Removing stm32f10x_flash.o(i.FLASH_GetPrefetchBufferStatus), (20 bytes).
    Removing stm32f10x_flash.o(i.FLASH_GetReadOutProtectionStatus), (20 bytes).
    Removing stm32f10x_flash.o(i.FLASH_GetStatus), (40 bytes).
    Removing stm32f10x_flash.o(i.FLASH_GetUserOptionByte), (12 bytes).
    Removing stm32f10x_flash.o(i.FLASH_GetWriteProtectionOptionByte), (12 bytes).
    Removing stm32f10x_flash.o(i.FLASH_HalfCycleAccessCmd), (24 bytes).
    Removing stm32f10x_flash.o(i.FLASH_ITConfig), (24 bytes).
    Removing stm32f10x_flash.o(i.FLASH_LockBank1), (16 bytes).
    Removing stm32f10x_flash.o(i.FLASH_ProgramHalfWord), (52 bytes).
    Removing stm32f10x_flash.o(i.FLASH_ProgramOptionByteData), (76 bytes).
    Removing stm32f10x_flash.o(i.FLASH_ReadOutProtection), (136 bytes).
    Removing stm32f10x_flash.o(i.FLASH_UnlockBank1), (24 bytes).
    Removing stm32f10x_flash.o(i.FLASH_UserOptionByteConfig), (96 bytes).
    Removing stm32f10x_flash.o(i.FLASH_WaitForLastBank1Operation), (34 bytes).
    Removing stm32f10x_fsmc.o(i.FSMC_ClearFlag), (36 bytes).
    Removing stm32f10x_fsmc.o(i.FSMC_ClearITPendingBit), (40 bytes).
    Removing stm32f10x_fsmc.o(i.FSMC_GetECC), (18 bytes).
    Removing stm32f10x_fsmc.o(i.FSMC_GetFlagStatus), (40 bytes).
    Removing stm32f10x_fsmc.o(i.FSMC_GetITStatus), (48 bytes).
    Removing stm32f10x_fsmc.o(i.FSMC_ITConfig), (68 bytes).
    Removing stm32f10x_fsmc.o(i.FSMC_NANDCmd), (56 bytes).
    Removing stm32f10x_fsmc.o(i.FSMC_NANDDeInit), (40 bytes).
    Removing stm32f10x_fsmc.o(i.FSMC_NANDECCCmd), (56 bytes).
    Removing stm32f10x_fsmc.o(i.FSMC_NANDInit), (104 bytes).
    Removing stm32f10x_fsmc.o(i.FSMC_NANDStructInit), (54 bytes).
    Removing stm32f10x_fsmc.o(i.FSMC_NORSRAMCmd), (32 bytes).
    Removing stm32f10x_fsmc.o(i.FSMC_NORSRAMDeInit), (36 bytes).
    Removing stm32f10x_fsmc.o(i.FSMC_NORSRAMInit), (192 bytes).
    Removing stm32f10x_fsmc.o(i.FSMC_NORSRAMStructInit), (98 bytes).
    Removing stm32f10x_fsmc.o(i.FSMC_PCCARDCmd), (32 bytes).
    Removing stm32f10x_fsmc.o(i.FSMC_PCCARDDeInit), (28 bytes).
    Removing stm32f10x_fsmc.o(i.FSMC_PCCARDInit), (104 bytes).
    Removing stm32f10x_fsmc.o(i.FSMC_PCCARDStructInit), (60 bytes).
    Removing stm32f10x_gpio.o(i.GPIO_AFIODeInit), (22 bytes).
    Removing stm32f10x_gpio.o(i.GPIO_DeInit), (180 bytes).
    Removing stm32f10x_gpio.o(i.GPIO_ETH_MediaInterfaceConfig), (12 bytes).
    Removing stm32f10x_gpio.o(i.GPIO_EXTILineConfig), (40 bytes).
    Removing stm32f10x_gpio.o(i.GPIO_EventOutputCmd), (12 bytes).
    Removing stm32f10x_gpio.o(i.GPIO_EventOutputConfig), (28 bytes).
    Removing stm32f10x_gpio.o(i.GPIO_PinLockConfig), (16 bytes).
    Removing stm32f10x_gpio.o(i.GPIO_ReadInputData), (6 bytes).
    Removing stm32f10x_gpio.o(i.GPIO_ReadOutputData), (6 bytes).
    Removing stm32f10x_gpio.o(i.GPIO_ReadOutputDataBit), (14 bytes).
    Removing stm32f10x_gpio.o(i.GPIO_StructInit), (16 bytes).
    Removing stm32f10x_gpio.o(i.GPIO_Write), (4 bytes).
    Removing stm32f10x_gpio.o(i.GPIO_WriteBit), (10 bytes).
    Removing stm32f10x_i2c.o(i.I2C_ARPCmd), (20 bytes).
    Removing stm32f10x_i2c.o(i.I2C_AcknowledgeConfig), (20 bytes).
    Removing stm32f10x_i2c.o(i.I2C_CalculatePEC), (20 bytes).
    Removing stm32f10x_i2c.o(i.I2C_CheckEvent), (24 bytes).
    Removing stm32f10x_i2c.o(i.I2C_ClearFlag), (6 bytes).
    Removing stm32f10x_i2c.o(i.I2C_ClearITPendingBit), (6 bytes).
    Removing stm32f10x_i2c.o(i.I2C_Cmd), (20 bytes).
    Removing stm32f10x_i2c.o(i.I2C_DMACmd), (20 bytes).
    Removing stm32f10x_i2c.o(i.I2C_DMALastTransferCmd), (20 bytes).
    Removing stm32f10x_i2c.o(i.I2C_DeInit), (44 bytes).
    Removing stm32f10x_i2c.o(i.I2C_DualAddressCmd), (20 bytes).
    Removing stm32f10x_i2c.o(i.I2C_FastModeDutyCycleConfig), (22 bytes).
    Removing stm32f10x_i2c.o(i.I2C_GeneralCallCmd), (20 bytes).
    Removing stm32f10x_i2c.o(i.I2C_GenerateSTART), (20 bytes).
    Removing stm32f10x_i2c.o(i.I2C_GenerateSTOP), (20 bytes).
    Removing stm32f10x_i2c.o(i.I2C_GetFlagStatus), (42 bytes).
    Removing stm32f10x_i2c.o(i.I2C_GetITStatus), (36 bytes).
    Removing stm32f10x_i2c.o(i.I2C_GetLastEvent), (14 bytes).
    Removing stm32f10x_i2c.o(i.I2C_GetPEC), (6 bytes).
    Removing stm32f10x_i2c.o(i.I2C_ITConfig), (16 bytes).
    Removing stm32f10x_i2c.o(i.I2C_Init), (184 bytes).
    Removing stm32f10x_i2c.o(i.I2C_NACKPositionConfig), (22 bytes).
    Removing stm32f10x_i2c.o(i.I2C_OwnAddress2Config), (16 bytes).
    Removing stm32f10x_i2c.o(i.I2C_PECPositionConfig), (22 bytes).
    Removing stm32f10x_i2c.o(i.I2C_ReadRegister), (10 bytes).
    Removing stm32f10x_i2c.o(i.I2C_ReceiveData), (6 bytes).
    Removing stm32f10x_i2c.o(i.I2C_SMBusAlertConfig), (22 bytes).
    Removing stm32f10x_i2c.o(i.I2C_Send7bitAddress), (16 bytes).
    Removing stm32f10x_i2c.o(i.I2C_SendData), (4 bytes).
    Removing stm32f10x_i2c.o(i.I2C_SoftwareResetCmd), (20 bytes).
    Removing stm32f10x_i2c.o(i.I2C_StretchClockCmd), (20 bytes).
    Removing stm32f10x_i2c.o(i.I2C_StructInit), (28 bytes).
    Removing stm32f10x_i2c.o(i.I2C_TransmitPEC), (20 bytes).
    Removing stm32f10x_iwdg.o(i.IWDG_Enable), (16 bytes).
    Removing stm32f10x_iwdg.o(i.IWDG_GetFlagStatus), (20 bytes).
    Removing stm32f10x_iwdg.o(i.IWDG_ReloadCounter), (16 bytes).
    Removing stm32f10x_iwdg.o(i.IWDG_SetPrescaler), (12 bytes).
    Removing stm32f10x_iwdg.o(i.IWDG_SetReload), (12 bytes).
    Removing stm32f10x_iwdg.o(i.IWDG_WriteAccessCmd), (12 bytes).
    Removing stm32f10x_pwr.o(i.PWR_ClearFlag), (16 bytes).
    Removing stm32f10x_pwr.o(i.PWR_DeInit), (24 bytes).
    Removing stm32f10x_pwr.o(i.PWR_EnterSTANDBYMode), (40 bytes).
    Removing stm32f10x_pwr.o(i.PWR_EnterSTOPMode), (52 bytes).
    Removing stm32f10x_pwr.o(i.PWR_GetFlagStatus), (20 bytes).
    Removing stm32f10x_pwr.o(i.PWR_PVDCmd), (12 bytes).
    Removing stm32f10x_pwr.o(i.PWR_PVDLevelConfig), (20 bytes).
    Removing stm32f10x_pwr.o(i.PWR_WakeUpPinCmd), (12 bytes).
    Removing stm32f10x_rcc.o(i.RCC_APB1PeriphResetCmd), (24 bytes).
    Removing stm32f10x_rcc.o(i.RCC_AdjustHSICalibrationValue), (20 bytes).
    Removing stm32f10x_rcc.o(i.RCC_ClearFlag), (16 bytes).
    Removing stm32f10x_rcc.o(i.RCC_ClearITPendingBit), (12 bytes).
    Removing stm32f10x_rcc.o(i.RCC_ClockSecuritySystemCmd), (12 bytes).
    Removing stm32f10x_rcc.o(i.RCC_GetITStatus), (20 bytes).
    Removing stm32f10x_rcc.o(i.RCC_HSICmd), (12 bytes).
    Removing stm32f10x_rcc.o(i.RCC_ITConfig), (24 bytes).
    Removing stm32f10x_rcc.o(i.RCC_LSICmd), (12 bytes).
    Removing stm32f10x_rcc.o(i.RCC_MCOConfig), (12 bytes).
    Removing stm32f10x_rcc.o(i.RCC_USBCLKConfig), (12 bytes).
    Removing stm32f10x_rtc.o(i.RTC_ClearFlag), (16 bytes).
    Removing stm32f10x_rtc.o(i.RTC_GetCounter), (20 bytes).
    Removing stm32f10x_rtc.o(i.RTC_GetDivider), (24 bytes).
    Removing stm32f10x_rtc.o(i.RTC_GetFlagStatus), (20 bytes).
    Removing stm32f10x_rtc.o(i.RTC_SetAlarm), (32 bytes).
    Removing stm32f10x_sdio.o(i.SDIO_CEATAITCmd), (16 bytes).
    Removing stm32f10x_sdio.o(i.SDIO_ClearFlag), (12 bytes).
    Removing stm32f10x_sdio.o(i.SDIO_ClearITPendingBit), (12 bytes).
    Removing stm32f10x_sdio.o(i.SDIO_ClockCmd), (12 bytes).
    Removing stm32f10x_sdio.o(i.SDIO_CmdStructInit), (14 bytes).
    Removing stm32f10x_sdio.o(i.SDIO_CommandCompletionCmd), (12 bytes).
    Removing stm32f10x_sdio.o(i.SDIO_DMACmd), (12 bytes).
    Removing stm32f10x_sdio.o(i.SDIO_DataConfig), (44 bytes).
    Removing stm32f10x_sdio.o(i.SDIO_DataStructInit), (20 bytes).
    Removing stm32f10x_sdio.o(i.SDIO_DeInit), (36 bytes).
    Removing stm32f10x_sdio.o(i.SDIO_GetCommandResponse), (12 bytes).
    Removing stm32f10x_sdio.o(i.SDIO_GetDataCounter), (12 bytes).
    Removing stm32f10x_sdio.o(i.SDIO_GetFIFOCount), (12 bytes).
    Removing stm32f10x_sdio.o(i.SDIO_GetFlagStatus), (20 bytes).
    Removing stm32f10x_sdio.o(i.SDIO_GetITStatus), (20 bytes).
    Removing stm32f10x_sdio.o(i.SDIO_GetPowerState), (16 bytes).
    Removing stm32f10x_sdio.o(i.SDIO_GetResponse), (16 bytes).
    Removing stm32f10x_sdio.o(i.SDIO_ITConfig), (24 bytes).
    Removing stm32f10x_sdio.o(i.SDIO_Init), (44 bytes).
    Removing stm32f10x_sdio.o(i.SDIO_ReadData), (12 bytes).
    Removing stm32f10x_sdio.o(i.SDIO_SendCEATACmd), (12 bytes).
    Removing stm32f10x_sdio.o(i.SDIO_SendCommand), (40 bytes).
    Removing stm32f10x_sdio.o(i.SDIO_SendSDIOSuspendCmd), (12 bytes).
    Removing stm32f10x_sdio.o(i.SDIO_SetPowerState), (24 bytes).
    Removing stm32f10x_sdio.o(i.SDIO_SetSDIOOperation), (12 bytes).
    Removing stm32f10x_sdio.o(i.SDIO_SetSDIOReadWaitMode), (12 bytes).
    Removing stm32f10x_sdio.o(i.SDIO_StartSDIOReadWait), (12 bytes).
    Removing stm32f10x_sdio.o(i.SDIO_StopSDIOReadWait), (12 bytes).
    Removing stm32f10x_sdio.o(i.SDIO_StructInit), (16 bytes).
    Removing stm32f10x_sdio.o(i.SDIO_WriteData), (12 bytes).
    Removing stm32f10x_spi.o(i.I2S_Cmd), (20 bytes).
    Removing stm32f10x_spi.o(i.I2S_Init), (150 bytes).
    Removing stm32f10x_spi.o(i.I2S_StructInit), (18 bytes).
    Removing stm32f10x_spi.o(i.SPI_BiDirectionalLineConfig), (22 bytes).
    Removing stm32f10x_spi.o(i.SPI_DataSizeConfig), (16 bytes).
    Removing stm32f10x_spi.o(i.SPI_GetCRC), (12 bytes).
    Removing stm32f10x_spi.o(i.SPI_GetCRCPolynomial), (4 bytes).
    Removing stm32f10x_spi.o(i.SPI_I2S_ClearFlag), (6 bytes).
    Removing stm32f10x_spi.o(i.SPI_I2S_ClearITPendingBit), (14 bytes).
    Removing stm32f10x_spi.o(i.SPI_I2S_DMACmd), (16 bytes).
    Removing stm32f10x_spi.o(i.SPI_I2S_DeInit), (84 bytes).
    Removing stm32f10x_spi.o(i.SPI_I2S_GetITStatus), (44 bytes).
    Removing stm32f10x_spi.o(i.SPI_NSSInternalSoftwareConfig), (24 bytes).
    Removing stm32f10x_spi.o(i.SPI_SSOutputCmd), (20 bytes).
    Removing stm32f10x_spi.o(i.SPI_StructInit), (24 bytes).
    Removing stm32f10x_spi.o(i.SPI_TransmitCRC), (10 bytes).
    Removing stm32f10x_tim.o(i.TI1_Config), (108 bytes).
    Removing stm32f10x_tim.o(i.TI2_Config), (124 bytes).
    Removing stm32f10x_tim.o(i.TIM_ARRPreloadConfig), (20 bytes).
    Removing stm32f10x_tim.o(i.TIM_BDTRConfig), (34 bytes).
    Removing stm32f10x_tim.o(i.TIM_BDTRStructInit), (18 bytes).
    Removing stm32f10x_tim.o(i.TIM_CCPreloadControl), (20 bytes).
    Removing stm32f10x_tim.o(i.TIM_CCxCmd), (22 bytes).
    Removing stm32f10x_tim.o(i.TIM_CCxNCmd), (22 bytes).
    Removing stm32f10x_tim.o(i.TIM_ClearFlag), (6 bytes).
    Removing stm32f10x_tim.o(i.TIM_ClearOC1Ref), (12 bytes).
    Removing stm32f10x_tim.o(i.TIM_ClearOC2Ref), (20 bytes).
    Removing stm32f10x_tim.o(i.TIM_ClearOC3Ref), (12 bytes).
    Removing stm32f10x_tim.o(i.TIM_ClearOC4Ref), (20 bytes).
    Removing stm32f10x_tim.o(i.TIM_CounterModeConfig), (12 bytes).
    Removing stm32f10x_tim.o(i.TIM_CtrlPWMOutputs), (22 bytes).
    Removing stm32f10x_tim.o(i.TIM_DMACmd), (16 bytes).
    Removing stm32f10x_tim.o(i.TIM_DMAConfig), (8 bytes).
    Removing stm32f10x_tim.o(i.TIM_DeInit), (368 bytes).
    Removing stm32f10x_tim.o(i.TIM_ETRClockMode1Config), (18 bytes).
    Removing stm32f10x_tim.o(i.TIM_ETRClockMode2Config), (18 bytes).
    Removing stm32f10x_tim.o(i.TIM_ETRConfig), (24 bytes).
    Removing stm32f10x_tim.o(i.TIM_EncoderInterfaceConfig), (50 bytes).
    Removing stm32f10x_tim.o(i.TIM_ForcedOC1Config), (12 bytes).
    Removing stm32f10x_tim.o(i.TIM_ForcedOC2Config), (20 bytes).
    Removing stm32f10x_tim.o(i.TIM_ForcedOC3Config), (12 bytes).
    Removing stm32f10x_tim.o(i.TIM_ForcedOC4Config), (20 bytes).
    Removing stm32f10x_tim.o(i.TIM_GenerateEvent), (4 bytes).
    Removing stm32f10x_tim.o(i.TIM_GetCapture1), (4 bytes).
    Removing stm32f10x_tim.o(i.TIM_GetCapture2), (4 bytes).
    Removing stm32f10x_tim.o(i.TIM_GetCapture3), (4 bytes).
    Removing stm32f10x_tim.o(i.TIM_GetCapture4), (6 bytes).
    Removing stm32f10x_tim.o(i.TIM_GetCounter), (4 bytes).
    Removing stm32f10x_tim.o(i.TIM_GetFlagStatus), (14 bytes).
    Removing stm32f10x_tim.o(i.TIM_GetPrescaler), (4 bytes).
    Removing stm32f10x_tim.o(i.TIM_ICInit), (300 bytes).
    Removing stm32f10x_tim.o(i.TIM_ICStructInit), (16 bytes).
    Removing stm32f10x_tim.o(i.TIM_ITConfig), (16 bytes).
    Removing stm32f10x_tim.o(i.TIM_ITRxExternalClockConfig), (18 bytes).
    Removing stm32f10x_tim.o(i.TIM_InternalClockConfig), (10 bytes).
    Removing stm32f10x_tim.o(i.TIM_OC1FastConfig), (12 bytes).
    Removing stm32f10x_tim.o(i.TIM_OC1Init), (128 bytes).
    Removing stm32f10x_tim.o(i.TIM_OC1NPolarityConfig), (12 bytes).
    Removing stm32f10x_tim.o(i.TIM_OC1PolarityConfig), (12 bytes).
    Removing stm32f10x_tim.o(i.TIM_OC1PreloadConfig), (12 bytes).
    Removing stm32f10x_tim.o(i.TIM_OC2FastConfig), (20 bytes).
    Removing stm32f10x_tim.o(i.TIM_OC2Init), (128 bytes).
    Removing stm32f10x_tim.o(i.TIM_OC2NPolarityConfig), (20 bytes).
    Removing stm32f10x_tim.o(i.TIM_OC2PolarityConfig), (20 bytes).
    Removing stm32f10x_tim.o(i.TIM_OC2PreloadConfig), (20 bytes).
    Removing stm32f10x_tim.o(i.TIM_OC3FastConfig), (12 bytes).
    Removing stm32f10x_tim.o(i.TIM_OC3Init), (124 bytes).
    Removing stm32f10x_tim.o(i.TIM_OC3NPolarityConfig), (20 bytes).
    Removing stm32f10x_tim.o(i.TIM_OC3PolarityConfig), (20 bytes).
    Removing stm32f10x_tim.o(i.TIM_OC3PreloadConfig), (12 bytes).
    Removing stm32f10x_tim.o(i.TIM_OC4FastConfig), (20 bytes).
    Removing stm32f10x_tim.o(i.TIM_OC4Init), (100 bytes).
    Removing stm32f10x_tim.o(i.TIM_OC4PolarityConfig), (20 bytes).
    Removing stm32f10x_tim.o(i.TIM_OC4PreloadConfig), (20 bytes).
    Removing stm32f10x_tim.o(i.TIM_OCStructInit), (20 bytes).
    Removing stm32f10x_tim.o(i.TIM_PWMIConfig), (108 bytes).
    Removing stm32f10x_tim.o(i.TIM_PrescalerConfig), (6 bytes).
    Removing stm32f10x_tim.o(i.TIM_SelectCCDMA), (20 bytes).
    Removing stm32f10x_tim.o(i.TIM_SelectCOM), (20 bytes).
    Removing stm32f10x_tim.o(i.TIM_SelectHallSensor), (20 bytes).
    Removing stm32f10x_tim.o(i.TIM_SelectInputTrigger), (12 bytes).
    Removing stm32f10x_tim.o(i.TIM_SelectMasterSlaveMode), (16 bytes).
    Removing stm32f10x_tim.o(i.TIM_SelectOCxM), (70 bytes).
    Removing stm32f10x_tim.o(i.TIM_SelectOnePulseMode), (16 bytes).
    Removing stm32f10x_tim.o(i.TIM_SelectOutputTrigger), (16 bytes).
    Removing stm32f10x_tim.o(i.TIM_SelectSlaveMode), (16 bytes).
    Removing stm32f10x_tim.o(i.TIM_SetAutoreload), (4 bytes).
    Removing stm32f10x_tim.o(i.TIM_SetClockDivision), (16 bytes).
    Removing stm32f10x_tim.o(i.TIM_SetCompare1), (4 bytes).
    Removing stm32f10x_tim.o(i.TIM_SetCompare2), (4 bytes).
    Removing stm32f10x_tim.o(i.TIM_SetCompare3), (4 bytes).
    Removing stm32f10x_tim.o(i.TIM_SetCompare4), (6 bytes).
    Removing stm32f10x_tim.o(i.TIM_SetCounter), (4 bytes).
    Removing stm32f10x_tim.o(i.TIM_SetIC1Prescaler), (16 bytes).
    Removing stm32f10x_tim.o(i.TIM_SetIC2Prescaler), (24 bytes).
    Removing stm32f10x_tim.o(i.TIM_SetIC3Prescaler), (16 bytes).
    Removing stm32f10x_tim.o(i.TIM_SetIC4Prescaler), (24 bytes).
    Removing stm32f10x_tim.o(i.TIM_TIxExternalClockConfig), (46 bytes).
    Removing stm32f10x_tim.o(i.TIM_TimeBaseInit), (156 bytes).
    Removing stm32f10x_tim.o(i.TIM_TimeBaseStructInit), (18 bytes).
    Removing stm32f10x_tim.o(i.TIM_UpdateDisableConfig), (20 bytes).
    Removing stm32f10x_tim.o(i.TIM_UpdateRequestConfig), (20 bytes).
    Removing stm32f10x_usart.o(i.USART_ClearFlag), (6 bytes).
    Removing stm32f10x_usart.o(i.USART_ClearITPendingBit), (12 bytes).
    Removing stm32f10x_usart.o(i.USART_ClockInit), (30 bytes).
    Removing stm32f10x_usart.o(i.USART_ClockStructInit), (12 bytes).
    Removing stm32f10x_usart.o(i.USART_DMACmd), (16 bytes).
    Removing stm32f10x_usart.o(i.USART_DeInit), (116 bytes).
    Removing stm32f10x_usart.o(i.USART_HalfDuplexCmd), (20 bytes).
    Removing stm32f10x_usart.o(i.USART_IrDACmd), (20 bytes).
    Removing stm32f10x_usart.o(i.USART_IrDAConfig), (16 bytes).
    Removing stm32f10x_usart.o(i.USART_LINBreakDetectLengthConfig), (16 bytes).
    Removing stm32f10x_usart.o(i.USART_LINCmd), (20 bytes).
    Removing stm32f10x_usart.o(i.USART_OneBitMethodCmd), (20 bytes).
    Removing stm32f10x_usart.o(i.USART_OverSampling8Cmd), (20 bytes).
    Removing stm32f10x_usart.o(i.USART_ReceiverWakeUpCmd), (20 bytes).
    Removing stm32f10x_usart.o(i.USART_SendBreak), (10 bytes).
    Removing stm32f10x_usart.o(i.USART_SetAddress), (16 bytes).
    Removing stm32f10x_usart.o(i.USART_SetGuardTime), (16 bytes).
    Removing stm32f10x_usart.o(i.USART_SetPrescaler), (16 bytes).
    Removing stm32f10x_usart.o(i.USART_SmartCardCmd), (20 bytes).
    Removing stm32f10x_usart.o(i.USART_SmartCardNACKCmd), (20 bytes).
    Removing stm32f10x_usart.o(i.USART_StructInit), (22 bytes).
    Removing stm32f10x_usart.o(i.USART_WakeUpConfig), (16 bytes).
    Removing stm32f10x_wwdg.o(i.WWDG_ClearFlag), (12 bytes).
    Removing stm32f10x_wwdg.o(i.WWDG_DeInit), (24 bytes).
    Removing stm32f10x_wwdg.o(i.WWDG_Enable), (16 bytes).
    Removing stm32f10x_wwdg.o(i.WWDG_EnableIT), (12 bytes).
    Removing stm32f10x_wwdg.o(i.WWDG_GetFlagStatus), (12 bytes).
    Removing stm32f10x_wwdg.o(i.WWDG_SetCounter), (16 bytes).
    Removing stm32f10x_wwdg.o(i.WWDG_SetPrescaler), (20 bytes).
    Removing stm32f10x_wwdg.o(i.WWDG_SetWindowValue), (28 bytes).
    Removing core_cm3.o(.emb_text), (32 bytes).
    Removing system_stm32f10x.o(i.SystemCoreClockUpdate), (104 bytes).
    Removing kernal.o(.emb_text), (16 bytes).
    Removing kernal.o(i.GetSecondOfWeek), (12 bytes).
    Removing kernal.o(i.SetSecondOfWeek), (12 bytes).
    Removing protocol.o(i.SoftGenCrc32), (56 bytes).
    Removing testled.o(i.TestLed), (56 bytes).
    Removing testtimer.o(i.TestTimer), (58 bytes).
    Removing testuart.o(i.TestCrc), (192 bytes).
    Removing testuart.o(i.TestUart1), (96 bytes).
    Removing testuart.o(i.TestUart1Ex), (164 bytes).
    Removing testuart.o(i.TestUart1Timer), (64 bytes).
    Removing testuart.o(i.TestUart2), (96 bytes).
    Removing testuart.o(i.TestUart2Timer), (64 bytes).
    Removing testuart.o(i.TestUart3), (96 bytes).
    Removing testuart.o(i.TestUart3Timer), (64 bytes).
    Removing testuart.o(i.TestUartFlash), (316 bytes).
    Removing testads1248.o(i.TestAds1248), (160 bytes).
    Removing testads1248.o(i.TestAds1248andDs18b20), (260 bytes).
    Removing testsst25vf0.o(i.TestSST25VF0), (360 bytes).
    Removing testsst25vf0.o(i.TestSST25VF0_Storage), (280 bytes).
    Removing testam2305.o(i.TestAm2305), (276 bytes).
    Removing testrtc.o(i.TestRtc), (264 bytes).
    Removing testadc.o(i.TestAdc), (92 bytes).
    Removing testltc2402.o(i.TestLTC2402), (324 bytes).
    Removing testltc2402.o(.data), (16 bytes).
    Removing testds18b20.o(i.TestDs18b20), (148 bytes).
    Removing serial.o(i.ReadUsartDataEx), (104 bytes).
    Removing serial.o(i.ReadUsartDataSolod), (84 bytes).
    Removing serial.o(i.UartClose), (6 bytes).
    Removing spi.o(i.SpiClose), (6 bytes).
    Removing spi.o(i.SpiSetSpeed), (20 bytes).
    Removing timer.o(i.GetTimer), (12 bytes).
    Removing timer.o(i.SetTimer), (16 bytes).
    Removing timer.o(i.TIM_Close), (10 bytes).
    Removing timer.o(i.TIM_Create), (80 bytes).
    Removing timer.o(i.TIM_Open), (8 bytes).
    Removing iic.o(i.IIC_Ack), (56 bytes).
    Removing iic.o(i.IIC_Init), (48 bytes).
    Removing iic.o(i.IIC_NAck), (56 bytes).
    Removing iic.o(i.IIC_Read_Byte), (108 bytes).
    Removing iic.o(i.IIC_Send_Byte), (96 bytes).
    Removing iic.o(i.IIC_Start), (56 bytes).
    Removing iic.o(i.IIC_Stop), (60 bytes).
    Removing iic.o(i.IIC_Wait_Ack), (88 bytes).
    Removing ads1248.o(i.ADS1248_Calibrate), (100 bytes).
    Removing ads1248.o(i.ADS1248_WaitBusy), (72 bytes).
    Removing ads1248.o(i.ADS_DataReadCotinu), (36 bytes).
    Removing ads1248.o(i.ADS_SetIdac), (38 bytes).
    Removing ads1248.o(i.ADS_SetPGAGain), (30 bytes).
    Removing ads1248.o(.data), (1 bytes).
    Removing dtu.o(i.DtuOff), (12 bytes).
    Removing dtu.o(i.DtuPwrOff), (12 bytes).
    Removing sst25vf064c.o(i.ExternFlashBlockErase_32K), (92 bytes).
    Removing sst25vf064c.o(i.ExternFlashBlockErase_64K), (92 bytes).
    Removing sst25vf064c.o(i.ExternFlashHighSpeedRead), (120 bytes).
    Removing sst25vf064c.o(i.ExternFlashSectorErase_4K), (92 bytes).
    Removing sst25vf064c.o(i.JedecIDRead), (84 bytes).
    Removing sst25vf064c.o(i.LockSID), (44 bytes).
    Removing sst25vf064c.o(i.ProgSID), (84 bytes).
    Removing sst25vf064c.o(i.Read), (92 bytes).
    Removing sst25vf064c.o(i.ReadID), (100 bytes).
    Removing sst25vf064c.o(i.ReadSID), (104 bytes).
    Removing am2305.o(i.AM2305_Init), (8 bytes).
    Removing am2305.o(i.AM2305_ReceiveByte), (112 bytes).
    Removing am2305.o(i.AM2305_Run), (136 bytes).
    Removing am2305.o(i.AM2305_Start), (80 bytes).
    Removing am2305.o(i.GetAm2305Data), (24 bytes).
    Removing am2305.o(.data), (7 bytes).
    Removing adc.o(i.GetAdcAverage), (46 bytes).
    Removing flash.o(.emb_text), (12 bytes).
    Removing flash.o(i.DownSTM32Flash), (24 bytes).
    Removing flash.o(i.FlashWriteSTM32), (162 bytes).
    Removing flash.o(i.WriteOnePage), (68 bytes).
    Removing flash.o(.data), (4 bytes).
    Removing ltc2402.o(i.LTC2402_ReadByte), (72 bytes).
    Removing ltc2402.o(i.LTC2402_TEST_EOC_End), (32 bytes).
    Removing ltc2402.o(i.LTC2402_TEST_EOC_Start), (24 bytes).
    Removing ltc2402.o(i.Ltc2402SoftInit), (196 bytes).
    Removing ds18b20.o(i.DS18B20_Read_Bit), (88 bytes).
    Removing appstorage.o(i.DataStorage), (292 bytes).
    Removing appstorage.o(i.GetHumidityTemperature), (200 bytes).

474 unused section(s) (total 19724 bytes) removed from the image.

==============================================================================

Image Symbol Table

    Local Symbols

    Symbol Name                              Value     Ov Type        Size  Object(Section)

    ../clib/angel/boardlib.s                 0x00000000   Number         0  boardshut.o ABSOLUTE
    ../clib/angel/boardlib.s                 0x00000000   Number         0  boardinit3.o ABSOLUTE
    ../clib/angel/boardlib.s                 0x00000000   Number         0  boardinit1.o ABSOLUTE
    ../clib/angel/boardlib.s                 0x00000000   Number         0  boardinit2.o ABSOLUTE
    ../clib/angel/handlers.s                 0x00000000   Number         0  __scatter_zi.o ABSOLUTE
    ../clib/angel/handlers.s                 0x00000000   Number         0  __scatter_copy.o ABSOLUTE
    ../clib/angel/kernel.s                   0x00000000   Number         0  rtentry.o ABSOLUTE
    ../clib/angel/kernel.s                   0x00000000   Number         0  rtexit.o ABSOLUTE
    ../clib/angel/kernel.s                   0x00000000   Number         0  rtentry4.o ABSOLUTE
    ../clib/angel/kernel.s                   0x00000000   Number         0  rtentry2.o ABSOLUTE
    ../clib/angel/kernel.s                   0x00000000   Number         0  rtexit2.o ABSOLUTE
    ../clib/angel/rt.s                       0x00000000   Number         0  rt_heap_descriptor_intlibspace.o ABSOLUTE
    ../clib/angel/rt.s                       0x00000000   Number         0  rt_errno_addr.o ABSOLUTE
    ../clib/angel/rt.s                       0x00000000   Number         0  rt_locale.o ABSOLUTE
    ../clib/angel/rt.s                       0x00000000   Number         0  rt_errno_addr_intlibspace.o ABSOLUTE
    ../clib/angel/rt.s                       0x00000000   Number         0  rt_raise.o ABSOLUTE
    ../clib/angel/rt.s                       0x00000000   Number         0  rt_locale_intlibspace.o ABSOLUTE
    ../clib/angel/rt.s                       0x00000000   Number         0  rt_heap_descriptor.o ABSOLUTE
    ../clib/angel/scatter.s                  0x00000000   Number         0  __scatter.o ABSOLUTE
    ../clib/angel/startup.s                  0x00000000   Number         0  __main.o ABSOLUTE
    ../clib/angel/sys.s                      0x00000000   Number         0  libspace.o ABSOLUTE
    ../clib/angel/sys.s                      0x00000000   Number         0  use_no_semi.o ABSOLUTE
    ../clib/angel/sys.s                      0x00000000   Number         0  use_no_semi_2.o ABSOLUTE
    ../clib/angel/sys.s                      0x00000000   Number         0  mutex_dummy.o ABSOLUTE
    ../clib/angel/sys.s                      0x00000000   Number         0  sys_stackheap_outer.o ABSOLUTE
    ../clib/angel/sys.s                      0x00000000   Number         0  indicate_semi.o ABSOLUTE
    ../clib/angel/sysapp.c                   0x00000000   Number         0  sys_command.o ABSOLUTE
    ../clib/armsys.c                         0x00000000   Number         0  argv_veneer.o ABSOLUTE
    ../clib/armsys.c                         0x00000000   Number         0  argv_veneer.o ABSOLUTE
    ../clib/armsys.c                         0x00000000   Number         0  _get_argv_nomalloc.o ABSOLUTE
    ../clib/armsys.c                         0x00000000   Number         0  _get_argv.o ABSOLUTE
    ../clib/armsys.c                         0x00000000   Number         0  no_argv.o ABSOLUTE
    ../clib/bigflt.c                         0x00000000   Number         0  bigflt0.o ABSOLUTE
    ../clib/btod.s                           0x00000000   Number         0  btod.o ABSOLUTE
    ../clib/fenv.c                           0x00000000   Number         0  _rserrno.o ABSOLUTE
    ../clib/heap1.c                          0x00000000   Number         0  h1_init_mt.o ABSOLUTE
    ../clib/heap1.c                          0x00000000   Number         0  h1_final_mt.o ABSOLUTE
    ../clib/heap1.c                          0x00000000   Number         0  h1_alloc.o ABSOLUTE
    ../clib/heap1.c                          0x00000000   Number         0  h1_free.o ABSOLUTE
    ../clib/heap1.c                          0x00000000   Number         0  h1_free_mt.o ABSOLUTE
    ../clib/heap1.c                          0x00000000   Number         0  h1_extend.o ABSOLUTE
    ../clib/heap1.c                          0x00000000   Number         0  h1_alloc_mt.o ABSOLUTE
    ../clib/heap1.c                          0x00000000   Number         0  h1_final.o ABSOLUTE
    ../clib/heap1.c                          0x00000000   Number         0  h1_extend_mt.o ABSOLUTE
    ../clib/heap1.c                          0x00000000   Number         0  h1_init.o ABSOLUTE
    ../clib/heap2.c                          0x00000000   Number         0  fdtree.o ABSOLUTE
    ../clib/heap2.c                          0x00000000   Number         0  heap2mt.o ABSOLUTE
    ../clib/heap2.c                          0x00000000   Number         0  heap2.o ABSOLUTE
    ../clib/heapalloc.c                      0x00000000   Number         0  maybetermalloc2.o ABSOLUTE
    ../clib/heapalloc.c                      0x00000000   Number         0  maybetermalloc2.o ABSOLUTE
    ../clib/heapalloc.c                      0x00000000   Number         0  maybetermalloc1.o ABSOLUTE
    ../clib/heapalloc.c                      0x00000000   Number         0  hrguard.o ABSOLUTE
    ../clib/heapalloc.c                      0x00000000   Number         0  init_alloc.o ABSOLUTE
    ../clib/heapalloc.c                      0x00000000   Number         0  hguard.o ABSOLUTE
    ../clib/heapalloc.c                      0x00000000   Number         0  maybetermalloc1.o ABSOLUTE
    ../clib/heapalloc.c                      0x00000000   Number         0  free.o ABSOLUTE
    ../clib/heapalloc.c                      0x00000000   Number         0  malloc.o ABSOLUTE
    ../clib/heapalloc.c                      0x00000000   Number         0  term_alloc.o ABSOLUTE
    ../clib/heapalloc.c                      0x00000000   Number         0  heapstubs.o ABSOLUTE
    ../clib/heapaux.c                        0x00000000   Number         0  heapauxa.o ABSOLUTE
    ../clib/heapaux.c                        0x00000000   Number         0  heapauxi.o ABSOLUTE
    ../clib/libinit.s                        0x00000000   Number         0  libshutdown2.o ABSOLUTE
    ../clib/libinit.s                        0x00000000   Number         0  libshutdown.o ABSOLUTE
    ../clib/libinit.s                        0x00000000   Number         0  libinit2.o ABSOLUTE
    ../clib/libinit.s                        0x00000000   Number         0  libinit.o ABSOLUTE
    ../clib/locale.s                         0x00000000   Number         0  lc_numeric_c.o ABSOLUTE
    ../clib/longlong.s                       0x00000000   Number         0  lludiv10.o ABSOLUTE
    ../clib/memcpset.s                       0x00000000   Number         0  strcmpv7m.o ABSOLUTE
    ../clib/memcpset.s                       0x00000000   Number         0  rt_memclr.o ABSOLUTE
    ../clib/memcpset.s                       0x00000000   Number         0  aeabi_memset.o ABSOLUTE
    ../clib/memcpset.s                       0x00000000   Number         0  rt_memclr_w.o ABSOLUTE
    ../clib/memcpset.s                       0x00000000   Number         0  rt_memcpy_v6.o ABSOLUTE
    ../clib/memcpset.s                       0x00000000   Number         0  rt_memcpy_w.o ABSOLUTE
    ../clib/misc.s                           0x00000000   Number         0  printf_stubs.o ABSOLUTE
    ../clib/printf.c                         0x00000000   Number         0  __printf_ss.o ABSOLUTE
    ../clib/printf.c                         0x00000000   Number         0  _printf_char_common.o ABSOLUTE
    ../clib/printf.c                         0x00000000   Number         0  __printf_flags_ss.o ABSOLUTE
    ../clib/printf.c                         0x00000000   Number         0  __printf_wp.o ABSOLUTE
    ../clib/printf.c                         0x00000000   Number         0  __printf_flags_wp.o ABSOLUTE
    ../clib/printf.c                         0x00000000   Number         0  __printf_ss_wp.o ABSOLUTE
    ../clib/printf.c                         0x00000000   Number         0  __printf_flags_ss_wp.o ABSOLUTE
    ../clib/printf.c                         0x00000000   Number         0  _printf_fp_infnan.o ABSOLUTE
    ../clib/printf.c                         0x00000000   Number         0  _printf_char_file.o ABSOLUTE
    ../clib/printf.c                         0x00000000   Number         0  _printf_char.o ABSOLUTE
    ../clib/printf.c                         0x00000000   Number         0  _sputc.o ABSOLUTE
    ../clib/printf.c                         0x00000000   Number         0  _printf_fp_dec.o ABSOLUTE
    ../clib/printf.c                         0x00000000   Number         0  _printf_intcommon.o ABSOLUTE
    ../clib/printf.c                         0x00000000   Number         0  __printf_nopercent.o ABSOLUTE
    ../clib/printf.c                         0x00000000   Number         0  __printf.o ABSOLUTE
    ../clib/printf.c                         0x00000000   Number         0  _printf_pad.o ABSOLUTE
    ../clib/printf.c                         0x00000000   Number         0  _printf_str.o ABSOLUTE
    ../clib/printf.c                         0x00000000   Number         0  _printf_dec.o ABSOLUTE
    ../clib/printf.c                         0x00000000   Number         0  _printf_hex_ll.o ABSOLUTE
    ../clib/printf.c                         0x00000000   Number         0  _printf_hex_int.o ABSOLUTE
    ../clib/printf.c                         0x00000000   Number         0  _printf_hex_int_ll.o ABSOLUTE
    ../clib/printf.c                         0x00000000   Number         0  _printf_hex_ptr.o ABSOLUTE
    ../clib/printf.c                         0x00000000   Number         0  _printf_hex_int_ptr.o ABSOLUTE
    ../clib/printf.c                         0x00000000   Number         0  _printf_hex_ll_ptr.o ABSOLUTE
    ../clib/printf.c                         0x00000000   Number         0  _printf_hex_int_ll_ptr.o ABSOLUTE
    ../clib/printf.c                         0x00000000   Number         0  __printf_flags.o ABSOLUTE
    ../clib/printf.c                         0x00000000   Number         0  __2printf.o ABSOLUTE
    ../clib/printf.c                         0x00000000   Number         0  __2sprintf.o ABSOLUTE
    ../clib/printf.c                         0x00000000   Number         0  noretval__2printf.o ABSOLUTE
    ../clib/printf.c                         0x00000000   Number         0  noretval__2sprintf.o ABSOLUTE
    ../clib/printf_percent.s                 0x00000000   Number         0  _printf_f.o ABSOLUTE
    ../clib/printf_percent.s                 0x00000000   Number         0  _printf_percent.o ABSOLUTE
    ../clib/printf_percent.s                 0x00000000   Number         0  _printf_d.o ABSOLUTE
    ../clib/printf_percent.s                 0x00000000   Number         0  _printf_x.o ABSOLUTE
    ../clib/printf_percent.s                 0x00000000   Number         0  _printf_s.o ABSOLUTE
    ../clib/printf_percent.s                 0x00000000   Number         0  _printf_percent_end.o ABSOLUTE
    ../clib/signal.c                         0x00000000   Number         0  defsig_segv_inner.o ABSOLUTE
    ../clib/signal.c                         0x00000000   Number         0  defsig_fpe_inner.o ABSOLUTE
    ../clib/signal.c                         0x00000000   Number         0  defsig_exit.o ABSOLUTE
    ../clib/signal.c                         0x00000000   Number         0  defsig_rtmem_formal.o ABSOLUTE
    ../clib/signal.c                         0x00000000   Number         0  defsig_rtmem_inner.o ABSOLUTE
    ../clib/signal.c                         0x00000000   Number         0  defsig_rtmem_outer.o ABSOLUTE
    ../clib/signal.c                         0x00000000   Number         0  defsig_abrt_inner.o ABSOLUTE
    ../clib/signal.c                         0x00000000   Number         0  defsig_rtred_inner.o ABSOLUTE
    ../clib/signal.c                         0x00000000   Number         0  defsig_stak_inner.o ABSOLUTE
    ../clib/signal.c                         0x00000000   Number         0  __raise.o ABSOLUTE
    ../clib/signal.c                         0x00000000   Number         0  defsig_pvfn_inner.o ABSOLUTE
    ../clib/signal.c                         0x00000000   Number         0  defsig_general.o ABSOLUTE
    ../clib/signal.c                         0x00000000   Number         0  defsig_other.o ABSOLUTE
    ../clib/signal.c                         0x00000000   Number         0  defsig_cppl_inner.o ABSOLUTE
    ../clib/signal.s                         0x00000000   Number         0  defsig.o ABSOLUTE
    ../clib/stdio.c                          0x00000000   Number         0  ferror_locked.o ABSOLUTE
    ../clib/stdio.c                          0x00000000   Number         0  ferror.o ABSOLUTE
    ../clib/stdlib.c                         0x00000000   Number         0  exit.o ABSOLUTE
    ../clib/string.c                         0x00000000   Number         0  strlen.o ABSOLUTE
    ../clib/string.c                         0x00000000   Number         0  memcmp.o ABSOLUTE
    ../clib/string.c                         0x00000000   Number         0  strstr.o ABSOLUTE
    ../fplib/d2f.s                           0x00000000   Number         0  d2f.o ABSOLUTE
    ../fplib/daddsub.s                       0x00000000   Number         0  daddsub_clz.o ABSOLUTE
    ../fplib/dcheck1.s                       0x00000000   Number         0  dcheck1.o ABSOLUTE
    ../fplib/dcmpi.s                         0x00000000   Number         0  dcmpi.o ABSOLUTE
    ../fplib/ddiv.s                          0x00000000   Number         0  ddiv.o ABSOLUTE
    ../fplib/dfix.s                          0x00000000   Number         0  dfix.o ABSOLUTE
    ../fplib/dflt.s                          0x00000000   Number         0  dflt_clz.o ABSOLUTE
    ../fplib/dleqf.s                         0x00000000   Number         0  dleqf.o ABSOLUTE
    ../fplib/dmul.s                          0x00000000   Number         0  dmul.o ABSOLUTE
    ../fplib/dnaninf.s                       0x00000000   Number         0  dnaninf.o ABSOLUTE
    ../fplib/dretinf.s                       0x00000000   Number         0  dretinf.o ABSOLUTE
    ../fplib/drleqf.s                        0x00000000   Number         0  drleqf.o ABSOLUTE
    ../fplib/dsqrt.s                         0x00000000   Number         0  dsqrt_noumaal.o ABSOLUTE
    ../fplib/f2d.s                           0x00000000   Number         0  f2d.o ABSOLUTE
    ../fplib/fcheck1.s                       0x00000000   Number         0  fcheck1.o ABSOLUTE
    ../fplib/fnaninf.s                       0x00000000   Number         0  fnaninf.o ABSOLUTE
    ../fplib/fpinit.s                        0x00000000   Number         0  fpinit.o ABSOLUTE
    ../fplib/fretinf.s                       0x00000000   Number         0  fretinf.o ABSOLUTE
    ../fplib/istatus.s                       0x00000000   Number         0  istatus.o ABSOLUTE
    ../fplib/printf1.s                       0x00000000   Number         0  printf1.o ABSOLUTE
    ../fplib/retnan.s                        0x00000000   Number         0  retnan.o ABSOLUTE
    ../fplib/scalbn.s                        0x00000000   Number         0  scalbn.o ABSOLUTE
    ../fplib/scalbnf.s                       0x00000000   Number         0  scalbnf.o ABSOLUTE
    ../fplib/trapv.s                         0x00000000   Number         0  trapv.o ABSOLUTE
    ../fplib/usenofp.s                       0x00000000   Number         0  usenofp.o ABSOLUTE
    ../mathlib/fpclassify.c                  0x00000000   Number         0  fpclassify.o ABSOLUTE
    ../mathlib/sqrt.c                        0x00000000   Number         0  sqrt.o ABSOLUTE
    ../mathlib/sqrt.c                        0x00000000   Number         0  sqrt_x.o ABSOLUTE
    ..\\code\\drv\\src\\flash.c              0x00000000   Number         0  flash.o ABSOLUTE
    ..\\code\\sys\\core_cm3.c                0x00000000   Number         0  core_cm3.o ABSOLUTE
    ..\\code\\sys\\kernal.c                  0x00000000   Number         0  kernal.o ABSOLUTE
    ..\code\app\src\AppStorage.c             0x00000000   Number         0  appstorage.o ABSOLUTE
    ..\code\bsp\src\misc.c                   0x00000000   Number         0  misc.o ABSOLUTE
    ..\code\bsp\src\stm32f10x_adc.c          0x00000000   Number         0  stm32f10x_adc.o ABSOLUTE
    ..\code\bsp\src\stm32f10x_bkp.c          0x00000000   Number         0  stm32f10x_bkp.o ABSOLUTE
    ..\code\bsp\src\stm32f10x_can.c          0x00000000   Number         0  stm32f10x_can.o ABSOLUTE
    ..\code\bsp\src\stm32f10x_cec.c          0x00000000   Number         0  stm32f10x_cec.o ABSOLUTE
    ..\code\bsp\src\stm32f10x_crc.c          0x00000000   Number         0  stm32f10x_crc.o ABSOLUTE
    ..\code\bsp\src\stm32f10x_dac.c          0x00000000   Number         0  stm32f10x_dac.o ABSOLUTE
    ..\code\bsp\src\stm32f10x_dbgmcu.c       0x00000000   Number         0  stm32f10x_dbgmcu.o ABSOLUTE
    ..\code\bsp\src\stm32f10x_dma.c          0x00000000   Number         0  stm32f10x_dma.o ABSOLUTE
    ..\code\bsp\src\stm32f10x_exti.c         0x00000000   Number         0  stm32f10x_exti.o ABSOLUTE
    ..\code\bsp\src\stm32f10x_flash.c        0x00000000   Number         0  stm32f10x_flash.o ABSOLUTE
    ..\code\bsp\src\stm32f10x_fsmc.c         0x00000000   Number         0  stm32f10x_fsmc.o ABSOLUTE
    ..\code\bsp\src\stm32f10x_gpio.c         0x00000000   Number         0  stm32f10x_gpio.o ABSOLUTE
    ..\code\bsp\src\stm32f10x_i2c.c          0x00000000   Number         0  stm32f10x_i2c.o ABSOLUTE
    ..\code\bsp\src\stm32f10x_iwdg.c         0x00000000   Number         0  stm32f10x_iwdg.o ABSOLUTE
    ..\code\bsp\src\stm32f10x_pwr.c          0x00000000   Number         0  stm32f10x_pwr.o ABSOLUTE
    ..\code\bsp\src\stm32f10x_rcc.c          0x00000000   Number         0  stm32f10x_rcc.o ABSOLUTE
    ..\code\bsp\src\stm32f10x_rtc.c          0x00000000   Number         0  stm32f10x_rtc.o ABSOLUTE
    ..\code\bsp\src\stm32f10x_sdio.c         0x00000000   Number         0  stm32f10x_sdio.o ABSOLUTE
    ..\code\bsp\src\stm32f10x_spi.c          0x00000000   Number         0  stm32f10x_spi.o ABSOLUTE
    ..\code\bsp\src\stm32f10x_tim.c          0x00000000   Number         0  stm32f10x_tim.o ABSOLUTE
    ..\code\bsp\src\stm32f10x_usart.c        0x00000000   Number         0  stm32f10x_usart.o ABSOLUTE
    ..\code\bsp\src\stm32f10x_wwdg.c         0x00000000   Number         0  stm32f10x_wwdg.o ABSOLUTE
    ..\code\drv\src\Adc.c                    0x00000000   Number         0  adc.o ABSOLUTE
    ..\code\drv\src\Dtu.c                    0x00000000   Number         0  dtu.o ABSOLUTE
    ..\code\drv\src\Led.c                    0x00000000   Number         0  led.o ABSOLUTE
    ..\code\drv\src\Protocol.c               0x00000000   Number         0  protocol.o ABSOLUTE
    ..\code\drv\src\Rtc.c                    0x00000000   Number         0  rtc.o ABSOLUTE
    ..\code\drv\src\SST25VF064C.c            0x00000000   Number         0  sst25vf064c.o ABSOLUTE
    ..\code\drv\src\Tsa5017.c                0x00000000   Number         0  tsa5017.o ABSOLUTE
    ..\code\drv\src\ads1248.c                0x00000000   Number         0  ads1248.o ABSOLUTE
    ..\code\drv\src\am2305.c                 0x00000000   Number         0  am2305.o ABSOLUTE
    ..\code\drv\src\ds18b20.c                0x00000000   Number         0  ds18b20.o ABSOLUTE
    ..\code\drv\src\flash.c                  0x00000000   Number         0  flash.o ABSOLUTE
    ..\code\drv\src\iic.c                    0x00000000   Number         0  iic.o ABSOLUTE
    ..\code\drv\src\ltc2402.c                0x00000000   Number         0  ltc2402.o ABSOLUTE
    ..\code\drv\src\serial.c                 0x00000000   Number         0  serial.o ABSOLUTE
    ..\code\drv\src\spi.c                    0x00000000   Number         0  spi.o ABSOLUTE
    ..\code\drv\src\timer.c                  0x00000000   Number         0  timer.o ABSOLUTE
    ..\code\sys\core_cm3.c                   0x00000000   Number         0  core_cm3.o ABSOLUTE
    ..\code\sys\kernal.c                     0x00000000   Number         0  kernal.o ABSOLUTE
    ..\code\sys\startup_stm32f10x_md.s       0x00000000   Number         0  startup_stm32f10x_md.o ABSOLUTE
    ..\code\sys\system_stm32f10x.c           0x00000000   Number         0  system_stm32f10x.o ABSOLUTE
    ..\code\test\TestAdc.c                   0x00000000   Number         0  testadc.o ABSOLUTE
    ..\code\test\TestAds1248.c               0x00000000   Number         0  testads1248.o ABSOLUTE
    ..\code\test\TestAm2305.c                0x00000000   Number         0  testam2305.o ABSOLUTE
    ..\code\test\TestDtu.c                   0x00000000   Number         0  testdtu.o ABSOLUTE
    ..\code\test\TestLed.c                   0x00000000   Number         0  testled.o ABSOLUTE
    ..\code\test\TestLtc2402.c               0x00000000   Number         0  testltc2402.o ABSOLUTE
    ..\code\test\TestRtc.c                   0x00000000   Number         0  testrtc.o ABSOLUTE
    ..\code\test\TestSST25VF0.c              0x00000000   Number         0  testsst25vf0.o ABSOLUTE
    ..\code\test\TestTimer.c                 0x00000000   Number         0  testtimer.o ABSOLUTE
    ..\code\test\TestUart.c                  0x00000000   Number         0  testuart.o ABSOLUTE
    ..\code\test\Testds18b20.c               0x00000000   Number         0  testds18b20.o ABSOLUTE
    ..\code\user\main.c                      0x00000000   Number         0  main.o ABSOLUTE
    dc.s                                     0x00000000   Number         0  dc.o ABSOLUTE
    RESET                                    0x08006000   Section      236  startup_stm32f10x_md.o(RESET)
    !!!main                                  0x080060ec   Section        8  __main.o(!!!main)
    !!!scatter                               0x080060f4   Section       52  __scatter.o(!!!scatter)
    !!handler_copy                           0x08006128   Section       26  __scatter_copy.o(!!handler_copy)
    !!handler_zi                             0x08006144   Section       28  __scatter_zi.o(!!handler_zi)
    .ARM.Collect$$_printf_percent$$00000000  0x08006160   Section        0  _printf_percent.o(.ARM.Collect$$_printf_percent$$00000000)
    .ARM.Collect$$_printf_percent$$00000003  0x08006160   Section        6  _printf_f.o(.ARM.Collect$$_printf_percent$$00000003)
    .ARM.Collect$$_printf_percent$$00000009  0x08006166   Section        6  _printf_d.o(.ARM.Collect$$_printf_percent$$00000009)
    .ARM.Collect$$_printf_percent$$0000000C  0x0800616c   Section        6  _printf_x.o(.ARM.Collect$$_printf_percent$$0000000C)
    .ARM.Collect$$_printf_percent$$00000014  0x08006172   Section        6  _printf_s.o(.ARM.Collect$$_printf_percent$$00000014)
    .ARM.Collect$$_printf_percent$$00000017  0x08006178   Section        4  _printf_percent_end.o(.ARM.Collect$$_printf_percent$$00000017)
    .ARM.Collect$$libinit$$00000000          0x0800617c   Section        2  libinit.o(.ARM.Collect$$libinit$$00000000)
    .ARM.Collect$$libinit$$00000002          0x0800617e   Section        0  libinit2.o(.ARM.Collect$$libinit$$00000002)
    .ARM.Collect$$libinit$$00000003          0x0800617e   Section        8  libinit2.o(.ARM.Collect$$libinit$$00000003)
    .ARM.Collect$$libinit$$00000008          0x08006186   Section        0  libinit2.o(.ARM.Collect$$libinit$$00000008)
    .ARM.Collect$$libinit$$0000000A          0x08006186   Section        0  libinit2.o(.ARM.Collect$$libinit$$0000000A)
    .ARM.Collect$$libinit$$0000000C          0x08006186   Section        0  libinit2.o(.ARM.Collect$$libinit$$0000000C)
    .ARM.Collect$$libinit$$0000000D          0x08006186   Section        6  libinit2.o(.ARM.Collect$$libinit$$0000000D)
    .ARM.Collect$$libinit$$0000000F          0x0800618c   Section        0  libinit2.o(.ARM.Collect$$libinit$$0000000F)
    .ARM.Collect$$libinit$$00000011          0x0800618c   Section        0  libinit2.o(.ARM.Collect$$libinit$$00000011)
    .ARM.Collect$$libinit$$00000013          0x0800618c   Section        0  libinit2.o(.ARM.Collect$$libinit$$00000013)
    .ARM.Collect$$libinit$$00000014          0x0800618c   Section       10  libinit2.o(.ARM.Collect$$libinit$$00000014)
    .ARM.Collect$$libinit$$00000015          0x08006196   Section        0  libinit2.o(.ARM.Collect$$libinit$$00000015)
    .ARM.Collect$$libinit$$00000017          0x08006196   Section        0  libinit2.o(.ARM.Collect$$libinit$$00000017)
    .ARM.Collect$$libinit$$00000019          0x08006196   Section        0  libinit2.o(.ARM.Collect$$libinit$$00000019)
    .ARM.Collect$$libinit$$0000001B          0x08006196   Section        0  libinit2.o(.ARM.Collect$$libinit$$0000001B)
    .ARM.Collect$$libinit$$0000001D          0x08006196   Section        0  libinit2.o(.ARM.Collect$$libinit$$0000001D)
    .ARM.Collect$$libinit$$0000001F          0x08006196   Section        0  libinit2.o(.ARM.Collect$$libinit$$0000001F)
    .ARM.Collect$$libinit$$00000021          0x08006196   Section        0  libinit2.o(.ARM.Collect$$libinit$$00000021)
    .ARM.Collect$$libinit$$00000023          0x08006196   Section        0  libinit2.o(.ARM.Collect$$libinit$$00000023)
    .ARM.Collect$$libinit$$0000002A          0x08006196   Section        0  libinit2.o(.ARM.Collect$$libinit$$0000002A)
    .ARM.Collect$$libinit$$0000002C          0x08006196   Section        0  libinit2.o(.ARM.Collect$$libinit$$0000002C)
    .ARM.Collect$$libinit$$0000002E          0x08006196   Section        0  libinit2.o(.ARM.Collect$$libinit$$0000002E)
    .ARM.Collect$$libinit$$00000030          0x08006196   Section        0  libinit2.o(.ARM.Collect$$libinit$$00000030)
    .ARM.Collect$$libinit$$00000031          0x08006196   Section        2  libinit2.o(.ARM.Collect$$libinit$$00000031)
    .ARM.Collect$$libshutdown$$00000000      0x08006198   Section        2  libshutdown.o(.ARM.Collect$$libshutdown$$00000000)
    .ARM.Collect$$libshutdown$$00000003      0x0800619a   Section        0  libshutdown2.o(.ARM.Collect$$libshutdown$$00000003)
    .ARM.Collect$$libshutdown$$00000006      0x0800619a   Section        0  libshutdown2.o(.ARM.Collect$$libshutdown$$00000006)
    .ARM.Collect$$libshutdown$$00000009      0x0800619a   Section        0  libshutdown2.o(.ARM.Collect$$libshutdown$$00000009)
    .ARM.Collect$$libshutdown$$0000000B      0x0800619a   Section        0  libshutdown2.o(.ARM.Collect$$libshutdown$$0000000B)
    .ARM.Collect$$libshutdown$$0000000E      0x0800619a   Section        0  libshutdown2.o(.ARM.Collect$$libshutdown$$0000000E)
    .ARM.Collect$$libshutdown$$0000000F      0x0800619a   Section        2  libshutdown2.o(.ARM.Collect$$libshutdown$$0000000F)
    .ARM.Collect$$rtentry$$00000000          0x0800619c   Section        0  rtentry.o(.ARM.Collect$$rtentry$$00000000)
    .ARM.Collect$$rtentry$$00000002          0x0800619c   Section        0  rtentry2.o(.ARM.Collect$$rtentry$$00000002)
    .ARM.Collect$$rtentry$$00000004          0x0800619c   Section        6  rtentry4.o(.ARM.Collect$$rtentry$$00000004)
    .ARM.Collect$$rtentry$$00000009          0x080061a2   Section        0  rtentry2.o(.ARM.Collect$$rtentry$$00000009)
    .ARM.Collect$$rtentry$$0000000A          0x080061a2   Section        4  rtentry2.o(.ARM.Collect$$rtentry$$0000000A)
    .ARM.Collect$$rtentry$$0000000C          0x080061a6   Section        0  rtentry2.o(.ARM.Collect$$rtentry$$0000000C)
    .ARM.Collect$$rtentry$$0000000D          0x080061a6   Section        8  rtentry2.o(.ARM.Collect$$rtentry$$0000000D)
    .ARM.Collect$$rtexit$$00000000           0x080061ae   Section        2  rtexit.o(.ARM.Collect$$rtexit$$00000000)
    .ARM.Collect$$rtexit$$00000002           0x080061b0   Section        0  rtexit2.o(.ARM.Collect$$rtexit$$00000002)
    .ARM.Collect$$rtexit$$00000003           0x080061b0   Section        4  rtexit2.o(.ARM.Collect$$rtexit$$00000003)
    .ARM.Collect$$rtexit$$00000004           0x080061b4   Section        6  rtexit2.o(.ARM.Collect$$rtexit$$00000004)
    .emb_text                                0x080061bc   Section        0  maybetermalloc1.o(.emb_text)
    .text                                    0x080061bc   Section       64  startup_stm32f10x_md.o(.text)
    .text                                    0x080061fc   Section        2  use_no_semi_2.o(.text)
    .text                                    0x080061fe   Section        0  h1_alloc.o(.text)
    .text                                    0x0800625c   Section        0  h1_free.o(.text)
    .text                                    0x080062ac   Section        0  noretval__2printf.o(.text)
    .text                                    0x080062c4   Section        0  noretval__2sprintf.o(.text)
    .text                                    0x080062ec   Section        0  _printf_pad.o(.text)
    .text                                    0x0800633e   Section        0  _printf_str.o(.text)
    .text                                    0x08006390   Section        0  _printf_dec.o(.text)
    .text                                    0x08006408   Section        0  _printf_hex_int.o(.text)
    .text                                    0x08006464   Section        0  __printf_wp.o(.text)
    .text                                    0x08006572   Section        0  strstr.o(.text)
    .text                                    0x08006596   Section        0  memcmp.o(.text)
    .text                                    0x080065ee   Section        0  strlen.o(.text)
    .text                                    0x0800662c   Section      138  rt_memcpy_v6.o(.text)
    .text                                    0x080066b6   Section       68  rt_memclr.o(.text)
    .text                                    0x080066fa   Section       78  rt_memclr_w.o(.text)
    .text                                    0x08006748   Section        0  heapauxi.o(.text)
    .text                                    0x0800674e   Section        2  use_no_semi.o(.text)
    .text                                    0x08006750   Section        8  rt_heap_descriptor_intlibspace.o(.text)
    .text                                    0x08006758   Section        0  hguard.o(.text)
    .text                                    0x0800675c   Section        0  init_alloc.o(.text)
    .text                                    0x080067e6   Section        0  h1_init.o(.text)
    .text                                    0x080067f4   Section        0  _rserrno.o(.text)
    .text                                    0x0800680a   Section        0  _printf_intcommon.o(.text)
    .text                                    0x080068c2   Section        0  _printf_fp_dec.o(.text)
    _fp_digits                               0x080068c5   Thumb Code   426  _printf_fp_dec.o(.text)
    .text                                    0x08006ce4   Section        0  _printf_char_common.o(.text)
    _printf_input_char                       0x08006ce5   Thumb Code    10  _printf_char_common.o(.text)
    .text                                    0x08006d14   Section        0  _sputc.o(.text)
    .text                                    0x08006d1e   Section        0  _printf_char.o(.text)
    .text                                    0x08006d4c   Section        0  _printf_char_file.o(.text)
    .text                                    0x08006d70   Section      100  rt_memcpy_w.o(.text)
    .text                                    0x08006dd4   Section        8  libspace.o(.text)
    .text                                    0x08006ddc   Section        8  rt_locale_intlibspace.o(.text)
    .text                                    0x08006de4   Section        8  rt_errno_addr_intlibspace.o(.text)
    .text                                    0x08006dec   Section        0  h1_extend.o(.text)
    .text                                    0x08006e20   Section      138  lludiv10.o(.text)
    .text                                    0x08006eac   Section        0  _printf_fp_infnan.o(.text)
    .text                                    0x08006f2c   Section        0  bigflt0.o(.text)
    .text                                    0x08007010   Section        0  ferror.o(.text)
    .text                                    0x08007018   Section        0  defsig_rtmem_outer.o(.text)
    .text                                    0x08007026   Section       74  sys_stackheap_outer.o(.text)
    .text                                    0x08007070   Section        0  exit.o(.text)
    .text                                    0x0800707c   Section        0  defsig_exit.o(.text)
    .text                                    0x08007088   Section        0  defsig_rtmem_inner.o(.text)
    .text                                    0x080070d8   Section      128  strcmpv7m.o(.text)
    .text                                    0x08007158   Section        0  defsig_general.o(.text)
    CL$$btod_d2e                             0x0800718a   Section       62  btod.o(CL$$btod_d2e)
    CL$$btod_d2e_denorm_low                  0x080071c8   Section       70  btod.o(CL$$btod_d2e_denorm_low)
    CL$$btod_d2e_norm_op1                    0x0800720e   Section       96  btod.o(CL$$btod_d2e_norm_op1)
    CL$$btod_div_common                      0x0800726e   Section      824  btod.o(CL$$btod_div_common)
    CL$$btod_e2e                             0x080075a6   Section      198  btod.o(CL$$btod_e2e)
    CL$$btod_ediv                            0x0800766c   Section       40  btod.o(CL$$btod_ediv)
    CL$$btod_emul                            0x08007694   Section       40  btod.o(CL$$btod_emul)
    CL$$btod_mult_common                     0x080076bc   Section      580  btod.o(CL$$btod_mult_common)
    i.ADC_Cmd                                0x08007900   Section        0  stm32f10x_adc.o(i.ADC_Cmd)
    i.ADC_DeInit                             0x08007914   Section        0  stm32f10x_adc.o(i.ADC_DeInit)
    i.ADC_GetCalibrationStatus               0x08007958   Section        0  stm32f10x_adc.o(i.ADC_GetCalibrationStatus)
    i.ADC_GetConversionValue                 0x08007966   Section        0  stm32f10x_adc.o(i.ADC_GetConversionValue)
    i.ADC_GetFlagStatus                      0x0800796c   Section        0  stm32f10x_adc.o(i.ADC_GetFlagStatus)
    i.ADC_GetResetCalibrationStatus          0x0800797a   Section        0  stm32f10x_adc.o(i.ADC_GetResetCalibrationStatus)
    i.ADC_Init                               0x08007988   Section        0  stm32f10x_adc.o(i.ADC_Init)
    i.ADC_RegularChannelConfig               0x080079d0   Section        0  stm32f10x_adc.o(i.ADC_RegularChannelConfig)
    i.ADC_ResetCalibration                   0x08007a44   Section        0  stm32f10x_adc.o(i.ADC_ResetCalibration)
    i.ADC_SoftwareStartConvCmd               0x08007a4e   Section        0  stm32f10x_adc.o(i.ADC_SoftwareStartConvCmd)
    i.ADC_StartCalibration                   0x08007a62   Section        0  stm32f10x_adc.o(i.ADC_StartCalibration)
    i.ADS1248_Init                           0x08007a6c   Section        0  ads1248.o(i.ADS1248_Init)
    i.ADS1248_ReadByte                       0x08007b7c   Section        0  ads1248.o(i.ADS1248_ReadByte)
    i.ADS1248_ReadReg                        0x08007bac   Section        0  ads1248.o(i.ADS1248_ReadReg)
    i.ADS1248_WriteByte                      0x08007c0c   Section        0  ads1248.o(i.ADS1248_WriteByte)
    i.ADS1248_WriteReg                       0x08007c3c   Section        0  ads1248.o(i.ADS1248_WriteReg)
    i.ADS_DataReadOnce                       0x08007ca0   Section        0  ads1248.o(i.ADS_DataReadOnce)
    i.AdcInit                                0x08007cc4   Section        0  adc.o(i.AdcInit)
    i.AddQueue                               0x08007d4c   Section        0  protocol.o(i.AddQueue)
    i.BKP_DeInit                             0x08007d86   Section        0  stm32f10x_bkp.o(i.BKP_DeInit)
    i.BKP_ReadBackupRegister                 0x08007d98   Section        0  stm32f10x_bkp.o(i.BKP_ReadBackupRegister)
    i.BKP_WriteBackupRegister                0x08007da8   Section        0  stm32f10x_bkp.o(i.BKP_WriteBackupRegister)
    i.BoardInit                              0x08007db8   Section        0  main.o(i.BoardInit)
    i.BusFault_Handler                       0x08007df8   Section        0  kernal.o(i.BusFault_Handler)
    i.CRC_CalcBlockCRC                       0x08007dfc   Section        0  stm32f10x_crc.o(i.CRC_CalcBlockCRC)
    i.CRC_ResetDR                            0x08007e18   Section        0  stm32f10x_crc.o(i.CRC_ResetDR)
    i.DS18B20_Check                          0x08007e24   Section        0  ds18b20.o(i.DS18B20_Check)
    i.DS18B20_Get_Temp                       0x08007e88   Section        0  ds18b20.o(i.DS18B20_Get_Temp)
    i.DS18B20_Init                           0x08007f10   Section        0  ds18b20.o(i.DS18B20_Init)
    i.DS18B20_Read_Byte                      0x08007f50   Section        0  ds18b20.o(i.DS18B20_Read_Byte)
    i.DS18B20_Rst                            0x08007fe0   Section        0  ds18b20.o(i.DS18B20_Rst)
    i.DS18B20_Start                          0x08008018   Section        0  ds18b20.o(i.DS18B20_Start)
    i.DS18B20_Write_Byte                     0x08008034   Section        0  ds18b20.o(i.DS18B20_Write_Byte)
    i.DebugMon_Handler                       0x08008094   Section        0  kernal.o(i.DebugMon_Handler)
    i.DelayMs                                0x08008098   Section        0  kernal.o(i.DelayMs)
    i.DelayMs_Sft                            0x080080b4   Section        0  kernal.o(i.DelayMs_Sft)
    i.DelayUs_Sft                            0x080080be   Section        0  kernal.o(i.DelayUs_Sft)
    i.DeleteQueue                            0x080080d2   Section        0  protocol.o(i.DeleteQueue)
    i.DetectOnline                           0x08008100   Section        0  dtu.o(i.DetectOnline)
    i.DtuConfigure                           0x0800811c   Section        0  testdtu.o(i.DtuConfigure)
    DtuConfigure                             0x0800811d   Thumb Code   600  testdtu.o(i.DtuConfigure)
    i.DtuInit                                0x080084f8   Section        0  dtu.o(i.DtuInit)
    i.DtuOn                                  0x08008558   Section        0  dtu.o(i.DtuOn)
    i.DtuPwrOn                               0x08008564   Section        0  dtu.o(i.DtuPwrOn)
    i.EnterException                         0x08008570   Section        0  kernal.o(i.EnterException)
    i.ExternFlashChipErase                   0x080085a8   Section        0  sst25vf064c.o(i.ExternFlashChipErase)
    i.ExternFlashPageProgram                 0x080085e0   Section        0  sst25vf064c.o(i.ExternFlashPageProgram)
    i.ExternFlash_Init                       0x08008708   Section        0  sst25vf064c.o(i.ExternFlash_Init)
    i.FLASH_ErasePage                        0x08008774   Section        0  stm32f10x_flash.o(i.FLASH_ErasePage)
    i.FLASH_GetBank1Status                   0x080087b0   Section        0  stm32f10x_flash.o(i.FLASH_GetBank1Status)
    i.FLASH_Lock                             0x080087d8   Section        0  stm32f10x_flash.o(i.FLASH_Lock)
    i.FLASH_PrefetchBufferCmd                0x080087e8   Section        0  stm32f10x_flash.o(i.FLASH_PrefetchBufferCmd)
    i.FLASH_ProgramWord                      0x08008800   Section        0  stm32f10x_flash.o(i.FLASH_ProgramWord)
    i.FLASH_SetLatency                       0x08008850   Section        0  stm32f10x_flash.o(i.FLASH_SetLatency)
    i.FLASH_Unlock                           0x08008864   Section        0  stm32f10x_flash.o(i.FLASH_Unlock)
    i.FLASH_WaitForLastOperation             0x0800887c   Section        0  stm32f10x_flash.o(i.FLASH_WaitForLastOperation)
    i.FlashInit                              0x080088a0   Section        0  flash.o(i.FlashInit)
    i.FlashReadSTM32                         0x080088d0   Section        0  flash.o(i.FlashReadSTM32)
    i.GPIO_Init                              0x080088dc   Section        0  stm32f10x_gpio.o(i.GPIO_Init)
    i.GPIO_PinRemapConfig                    0x08008974   Section        0  stm32f10x_gpio.o(i.GPIO_PinRemapConfig)
    i.GPIO_ReadInputDataBit                  0x080089cc   Section        0  stm32f10x_gpio.o(i.GPIO_ReadInputDataBit)
    i.GPIO_ResetBits                         0x080089da   Section        0  stm32f10x_gpio.o(i.GPIO_ResetBits)
    i.GPIO_Set                               0x080089de   Section        0  stm32f10x_gpio.o(i.GPIO_Set)
    i.GPIO_SetBits                           0x08008a7a   Section        0  stm32f10x_gpio.o(i.GPIO_SetBits)
    i.GetAdc                                 0x08008a80   Section        0  adc.o(i.GetAdc)
    i.GetQueueLength                         0x08008ab4   Section        0  protocol.o(i.GetQueueLength)
    i.GetTickCount                           0x08008ad4   Section        0  kernal.o(i.GetTickCount)
    i.GetUartReceiveTime                     0x08008ae0   Section        0  serial.o(i.GetUartReceiveTime)
    i.HandleADCProc                          0x08008b14   Section        0  testdtu.o(i.HandleADCProc)
    HandleADCProc                            0x08008b15   Thumb Code   102  testdtu.o(i.HandleADCProc)
    i.HandleAds1248Proc                      0x08008ba8   Section        0  testdtu.o(i.HandleAds1248Proc)
    HandleAds1248Proc                        0x08008ba9   Thumb Code   158  testdtu.o(i.HandleAds1248Proc)
    i.HandleBoardInfo                        0x08008cb4   Section        0  testdtu.o(i.HandleBoardInfo)
    HandleBoardInfo                          0x08008cb5   Thumb Code    72  testdtu.o(i.HandleBoardInfo)
    i.HandleCmdProc                          0x08008d18   Section        0  testdtu.o(i.HandleCmdProc)
    HandleCmdProc                            0x08008d19   Thumb Code   838  testdtu.o(i.HandleCmdProc)
    i.HandleDataPackage                      0x080091f0   Section        0  testdtu.o(i.HandleDataPackage)
    HandleDataPackage                        0x080091f1   Thumb Code   302  testdtu.o(i.HandleDataPackage)
    i.HandleModeProc                         0x0800932c   Section        0  testdtu.o(i.HandleModeProc)
    HandleModeProc                           0x0800932d   Thumb Code    80  testdtu.o(i.HandleModeProc)
    i.HandleRTCProc                          0x080093a0   Section        0  testdtu.o(i.HandleRTCProc)
    HandleRTCProc                            0x080093a1   Thumb Code    70  testdtu.o(i.HandleRTCProc)
    i.HandleTemperatureProc                  0x0800940c   Section        0  testdtu.o(i.HandleTemperatureProc)
    HandleTemperatureProc                    0x0800940d   Thumb Code   236  testdtu.o(i.HandleTemperatureProc)
    i.HardFault_Handler                      0x0800958c   Section        0  kernal.o(i.HardFault_Handler)
    i.HardGenCrc32                           0x08009590   Section        0  protocol.o(i.HardGenCrc32)
    i.Init                                   0x080095a6   Section        0  protocol.o(i.Init)
    i.Is_Leap_Year                           0x080095b2   Section        0  rtc.o(i.Is_Leap_Year)
    Is_Leap_Year                             0x080095b3   Thumb Code    38  rtc.o(i.Is_Leap_Year)
    i.LedInit                                0x080095d8   Section        0  led.o(i.LedInit)
    i.LedOff                                 0x08009604   Section        0  led.o(i.LedOff)
    i.LedOn                                  0x08009614   Section        0  led.o(i.LedOn)
    i.MemManage_Handler                      0x08009624   Section        0  kernal.o(i.MemManage_Handler)
    i.NMI_Handler                            0x08009626   Section        0  kernal.o(i.NMI_Handler)
    i.NVIC_Init                              0x08009628   Section        0  misc.o(i.NVIC_Init)
    i.NVIC_SystemReset                       0x0800968c   Section        0  kernal.o(i.NVIC_SystemReset)
    NVIC_SystemReset                         0x0800968d   Thumb Code    20  kernal.o(i.NVIC_SystemReset)
    i.NVIC_SystemReset                       0x080096a8   Section        0  testdtu.o(i.NVIC_SystemReset)
    NVIC_SystemReset                         0x080096a9   Thumb Code    20  testdtu.o(i.NVIC_SystemReset)
    i.OsInit                                 0x080096c4   Section        0  kernal.o(i.OsInit)
    i.PT100TempProcess                       0x0800970c   Section        0  ads1248.o(i.PT100TempProcess)
    i.PWR_BackupAccessCmd                    0x0800982c   Section        0  stm32f10x_pwr.o(i.PWR_BackupAccessCmd)
    i.PendSV_Handler                         0x08009838   Section        0  kernal.o(i.PendSV_Handler)
    i.Pt100                                  0x0800983c   Section        0  ads1248.o(i.Pt100)
    Pt100                                    0x0800983d   Thumb Code    68  ads1248.o(i.Pt100)
    i.RCC_ADCCLKConfig                       0x080098a4   Section        0  stm32f10x_rcc.o(i.RCC_ADCCLKConfig)
    i.RCC_AHBPeriphClockCmd                  0x080098b8   Section        0  stm32f10x_rcc.o(i.RCC_AHBPeriphClockCmd)
    i.RCC_APB1PeriphClockCmd                 0x080098d0   Section        0  stm32f10x_rcc.o(i.RCC_APB1PeriphClockCmd)
    i.RCC_APB2PeriphClockCmd                 0x080098e8   Section        0  stm32f10x_rcc.o(i.RCC_APB2PeriphClockCmd)
    i.RCC_APB2PeriphResetCmd                 0x08009900   Section        0  stm32f10x_rcc.o(i.RCC_APB2PeriphResetCmd)
    i.RCC_BackupResetCmd                     0x08009918   Section        0  stm32f10x_rcc.o(i.RCC_BackupResetCmd)
    i.RCC_Configuration                      0x08009924   Section        0  kernal.o(i.RCC_Configuration)
    RCC_Configuration                        0x08009925   Thumb Code   124  kernal.o(i.RCC_Configuration)
    i.RCC_DeInit                             0x080099a0   Section        0  stm32f10x_rcc.o(i.RCC_DeInit)
    i.RCC_GetClocksFreq                      0x080099e0   Section        0  stm32f10x_rcc.o(i.RCC_GetClocksFreq)
    i.RCC_GetFlagStatus                      0x08009a74   Section        0  stm32f10x_rcc.o(i.RCC_GetFlagStatus)
    i.RCC_GetSYSCLKSource                    0x08009aa4   Section        0  stm32f10x_rcc.o(i.RCC_GetSYSCLKSource)
    i.RCC_HCLKConfig                         0x08009ab4   Section        0  stm32f10x_rcc.o(i.RCC_HCLKConfig)
    i.RCC_HSEConfig                          0x08009ac8   Section        0  stm32f10x_rcc.o(i.RCC_HSEConfig)
    i.RCC_LSEConfig                          0x08009afc   Section        0  stm32f10x_rcc.o(i.RCC_LSEConfig)
    i.RCC_PCLK1Config                        0x08009b1c   Section        0  stm32f10x_rcc.o(i.RCC_PCLK1Config)
    i.RCC_PCLK2Config                        0x08009b30   Section        0  stm32f10x_rcc.o(i.RCC_PCLK2Config)
    i.RCC_PLLCmd                             0x08009b44   Section        0  stm32f10x_rcc.o(i.RCC_PLLCmd)
    i.RCC_PLLConfig                          0x08009b50   Section        0  stm32f10x_rcc.o(i.RCC_PLLConfig)
    i.RCC_RTCCLKCmd                          0x08009b64   Section        0  stm32f10x_rcc.o(i.RCC_RTCCLKCmd)
    i.RCC_RTCCLKConfig                       0x08009b70   Section        0  stm32f10x_rcc.o(i.RCC_RTCCLKConfig)
    i.RCC_SYSCLKConfig                       0x08009b80   Section        0  stm32f10x_rcc.o(i.RCC_SYSCLKConfig)
    i.RCC_WaitForHSEStartUp                  0x08009b94   Section        0  stm32f10x_rcc.o(i.RCC_WaitForHSEStartUp)
    i.RTC_ClearITPendingBit                  0x08009bc0   Section        0  stm32f10x_rtc.o(i.RTC_ClearITPendingBit)
    i.RTC_EnterConfigMode                    0x08009bd0   Section        0  stm32f10x_rtc.o(i.RTC_EnterConfigMode)
    i.RTC_ExitConfigMode                     0x08009be0   Section        0  stm32f10x_rtc.o(i.RTC_ExitConfigMode)
    i.RTC_Get                                0x08009bf0   Section        0  rtc.o(i.RTC_Get)
    i.RTC_GetITStatus                        0x08009d0c   Section        0  stm32f10x_rtc.o(i.RTC_GetITStatus)
    i.RTC_IRQHandler                         0x08009d2c   Section        0  rtc.o(i.RTC_IRQHandler)
    i.RTC_ITConfig                           0x08009d58   Section        0  stm32f10x_rtc.o(i.RTC_ITConfig)
    i.RTC_Init                               0x08009d70   Section        0  rtc.o(i.RTC_Init)
    i.RTC_Set                                0x08009e50   Section        0  rtc.o(i.RTC_Set)
    i.RTC_SetCounter                         0x08009f20   Section        0  stm32f10x_rtc.o(i.RTC_SetCounter)
    i.RTC_SetPrescaler                       0x08009f40   Section        0  stm32f10x_rtc.o(i.RTC_SetPrescaler)
    i.RTC_WaitForLastTask                    0x08009f60   Section        0  stm32f10x_rtc.o(i.RTC_WaitForLastTask)
    i.RTC_WaitForSynchro                     0x08009f70   Section        0  stm32f10x_rtc.o(i.RTC_WaitForSynchro)
    i.ReadStatusRegister                     0x08009f88   Section        0  sst25vf064c.o(i.ReadStatusRegister)
    ReadStatusRegister                       0x08009f89   Thumb Code    48  sst25vf064c.o(i.ReadStatusRegister)
    i.ReadUsartData                          0x08009fc0   Section        0  serial.o(i.ReadUsartData)
    i.SPI_CalculateCRC                       0x0800a020   Section        0  stm32f10x_spi.o(i.SPI_CalculateCRC)
    i.SPI_Cmd                                0x0800a034   Section        0  stm32f10x_spi.o(i.SPI_Cmd)
    i.SPI_I2S_GetFlagStatus                  0x0800a048   Section        0  stm32f10x_spi.o(i.SPI_I2S_GetFlagStatus)
    i.SPI_I2S_ITConfig                       0x0800a056   Section        0  stm32f10x_spi.o(i.SPI_I2S_ITConfig)
    i.SPI_I2S_ReceiveData                    0x0800a06e   Section        0  stm32f10x_spi.o(i.SPI_I2S_ReceiveData)
    i.SPI_I2S_SendData                       0x0800a072   Section        0  stm32f10x_spi.o(i.SPI_I2S_SendData)
    i.SPI_Init                               0x0800a076   Section        0  stm32f10x_spi.o(i.SPI_Init)
    i.SST25VF0_Init                          0x0800a0b0   Section        0  sst25vf064c.o(i.SST25VF0_Init)
    i.SVC_Handler                            0x0800a124   Section        0  kernal.o(i.SVC_Handler)
    i.SendAndWaitDtuDataProc                 0x0800a128   Section        0  testdtu.o(i.SendAndWaitDtuDataProc)
    SendAndWaitDtuDataProc                   0x0800a129   Thumb Code   188  testdtu.o(i.SendAndWaitDtuDataProc)
    i.SetSysClockTo36                        0x0800a208   Section        0  system_stm32f10x.o(i.SetSysClockTo36)
    SetSysClockTo36                          0x0800a209   Thumb Code   156  system_stm32f10x.o(i.SetSysClockTo36)
    i.SpiCreate                              0x0800a2ac   Section        0  spi.o(i.SpiCreate)
    i.SpiOpen                                0x0800a4a0   Section        0  spi.o(i.SpiOpen)
    i.SpiReadWriteByte                       0x0800a4b6   Section        0  spi.o(i.SpiReadWriteByte)
    i.SysTick_Handler                        0x0800a504   Section        0  kernal.o(i.SysTick_Handler)
    i.SystemInit                             0x0800a52c   Section        0  system_stm32f10x.o(i.SystemInit)
    i.TIM2_IRQHandler                        0x0800a580   Section        0  timer.o(i.TIM2_IRQHandler)
    i.TIM_ClearITPendingBit                  0x0800a5c8   Section        0  stm32f10x_tim.o(i.TIM_ClearITPendingBit)
    i.TIM_Cmd                                0x0800a5ce   Section        0  stm32f10x_tim.o(i.TIM_Cmd)
    i.TIM_GetITStatus                        0x0800a5e2   Section        0  stm32f10x_tim.o(i.TIM_GetITStatus)
    i.TestDtu                                0x0800a5fc   Section        0  testdtu.o(i.TestDtu)
    i.Tsa5017Init                            0x0800a82c   Section        0  tsa5017.o(i.Tsa5017Init)
    i.Tsa5017_CH1                            0x0800a85c   Section        0  tsa5017.o(i.Tsa5017_CH1)
    i.Tsa5017_CH2                            0x0800a890   Section        0  tsa5017.o(i.Tsa5017_CH2)
    i.Tsa5017_CH3                            0x0800a8c4   Section        0  tsa5017.o(i.Tsa5017_CH3)
    i.Tsa5017_CH4                            0x0800a8f8   Section        0  tsa5017.o(i.Tsa5017_CH4)
    i.USART1_IRQHandler                      0x0800a92c   Section        0  serial.o(i.USART1_IRQHandler)
    i.USART2_IRQHandler                      0x0800a964   Section        0  serial.o(i.USART2_IRQHandler)
    i.USART3_IRQHandler                      0x0800a99c   Section        0  serial.o(i.USART3_IRQHandler)
    i.USART_Cmd                              0x0800a9d4   Section        0  stm32f10x_usart.o(i.USART_Cmd)
    i.USART_GetFlagStatus                    0x0800a9e8   Section        0  stm32f10x_usart.o(i.USART_GetFlagStatus)
    i.USART_GetITStatus                      0x0800a9f6   Section        0  stm32f10x_usart.o(i.USART_GetITStatus)
    i.USART_ITConfig                         0x0800aa34   Section        0  stm32f10x_usart.o(i.USART_ITConfig)
    i.USART_Init                             0x0800aa64   Section        0  stm32f10x_usart.o(i.USART_Init)
    i.USART_ReceiveData                      0x0800ab18   Section        0  stm32f10x_usart.o(i.USART_ReceiveData)
    i.USART_SendData                         0x0800ab20   Section        0  stm32f10x_usart.o(i.USART_SendData)
    i.UartCreate                             0x0800ab28   Section        0  serial.o(i.UartCreate)
    i.UartDeinit                             0x0800acc8   Section        0  serial.o(i.UartDeinit)
    i.UartInit                               0x0800ad14   Section        0  serial.o(i.UartInit)
    i.UartOpen                               0x0800ad26   Section        0  serial.o(i.UartOpen)
    i.UsageFault_Handler                     0x0800ad2c   Section        0  kernal.o(i.UsageFault_Handler)
    i.UsartSend                              0x0800ad2e   Section        0  serial.o(i.UsartSend)
    i.WREN                                   0x0800ad5c   Section        0  sst25vf064c.o(i.WREN)
    WREN                                     0x0800ad5d   Thumb Code    36  sst25vf064c.o(i.WREN)
    i.__ARM_fpclassify                       0x0800ad88   Section        0  fpclassify.o(i.__ARM_fpclassify)
    i._is_digit                              0x0800adb0   Section        0  __printf_wp.o(i._is_digit)
    i._sys_exit                              0x0800adbe   Section        0  serial.o(i._sys_exit)
    i._ttywrch                               0x0800adc0   Section        0  serial.o(i._ttywrch)
    i.fputc                                  0x0800adc4   Section        0  serial.o(i.fputc)
    i.main                                   0x0800addc   Section        0  main.o(i.main)
    i.sqrt                                   0x0800adee   Section        0  sqrt.o(i.sqrt)
    locale$$code                             0x0800ae3c   Section       44  lc_numeric_c.o(locale$$code)
    x$fpl$d2f                                0x0800ae68   Section       98  d2f.o(x$fpl$d2f)
    x$fpl$dadd                               0x0800aecc   Section      336  daddsub_clz.o(x$fpl$dadd)
    _dadd1                                   0x0800aedd   Thumb Code     0  daddsub_clz.o(x$fpl$dadd)
    x$fpl$dcheck1                            0x0800b01c   Section       16  dcheck1.o(x$fpl$dcheck1)
    x$fpl$dcmpinf                            0x0800b02c   Section       24  dcmpi.o(x$fpl$dcmpinf)
    x$fpl$ddiv                               0x0800b044   Section      688  ddiv.o(x$fpl$ddiv)
    ddiv_entry                               0x0800b04b   Thumb Code     0  ddiv.o(x$fpl$ddiv)
    x$fpl$dfix                               0x0800b2f4   Section       94  dfix.o(x$fpl$dfix)
    x$fpl$dflt                               0x0800b352   Section       46  dflt_clz.o(x$fpl$dflt)
    x$fpl$dfltu                              0x0800b380   Section       38  dflt_clz.o(x$fpl$dfltu)
    x$fpl$dleqf                              0x0800b3a8   Section      120  dleqf.o(x$fpl$dleqf)
    x$fpl$dmul                               0x0800b420   Section      340  dmul.o(x$fpl$dmul)
    x$fpl$dnaninf                            0x0800b574   Section      156  dnaninf.o(x$fpl$dnaninf)
    x$fpl$dretinf                            0x0800b610   Section       12  dretinf.o(x$fpl$dretinf)
    x$fpl$drleqf                             0x0800b61c   Section      108  drleqf.o(x$fpl$drleqf)
    x$fpl$drsb                               0x0800b688   Section       22  daddsub_clz.o(x$fpl$drsb)
    x$fpl$dsqrt                              0x0800b6a0   Section      460  dsqrt_noumaal.o(x$fpl$dsqrt)
    x$fpl$dsub                               0x0800b86c   Section      468  daddsub_clz.o(x$fpl$dsub)
    _dsub1                                   0x0800b87d   Thumb Code     0  daddsub_clz.o(x$fpl$dsub)
    x$fpl$f2d                                0x0800ba40   Section       86  f2d.o(x$fpl$f2d)
    x$fpl$fcheck1                            0x0800ba98   Section       12  fcheck1.o(x$fpl$fcheck1)
    x$fpl$fnaninf                            0x0800baa4   Section      140  fnaninf.o(x$fpl$fnaninf)
    x$fpl$fretinf                            0x0800bb30   Section       10  fretinf.o(x$fpl$fretinf)
    x$fpl$printf1                            0x0800bb3a   Section        4  printf1.o(x$fpl$printf1)
    x$fpl$retnan                             0x0800bb3e   Section      100  retnan.o(x$fpl$retnan)
    x$fpl$scalbn                             0x0800bba2   Section       92  scalbn.o(x$fpl$scalbn)
    x$fpl$scalbnf                            0x0800bbfe   Section       76  scalbnf.o(x$fpl$scalbnf)
    x$fpl$trapveneer                         0x0800bc4a   Section       48  trapv.o(x$fpl$trapveneer)
    .constdata                               0x0800bc7a   Section       24  rtc.o(.constdata)
    x$fpl$usenofp                            0x0800bc7a   Section        0  usenofp.o(x$fpl$usenofp)
    table_week                               0x0800bc7a   Data          12  rtc.o(.constdata)
    mon_table                                0x0800bc86   Data          12  rtc.o(.constdata)
    .constdata                               0x0800bc92   Section       40  _printf_hex_int.o(.constdata)
    uc_hextab                                0x0800bc92   Data          20  _printf_hex_int.o(.constdata)
    lc_hextab                                0x0800bca6   Data          20  _printf_hex_int.o(.constdata)
    .constdata                               0x0800bcbc   Section      148  bigflt0.o(.constdata)
    tenpwrs_x                                0x0800bcbc   Data          60  bigflt0.o(.constdata)
    tenpwrs_i                                0x0800bcf8   Data          64  bigflt0.o(.constdata)
    locale$$data                             0x0800bd70   Section       28  lc_numeric_c.o(locale$$data)
    __lcnum_c_name                           0x0800bd74   Data           2  lc_numeric_c.o(locale$$data)
    __lcnum_c_start                          0x0800bd7c   Data           0  lc_numeric_c.o(locale$$data)
    __lcnum_c_point                          0x0800bd88   Data           0  lc_numeric_c.o(locale$$data)
    __lcnum_c_thousands                      0x0800bd8a   Data           0  lc_numeric_c.o(locale$$data)
    __lcnum_c_grouping                       0x0800bd8b   Data           0  lc_numeric_c.o(locale$$data)
    __lcnum_c_end                            0x0800bd8c   Data           0  lc_numeric_c.o(locale$$data)
    .data                                    0x20000000   Section       20  stm32f10x_rcc.o(.data)
    ADCPrescTable                            0x20000000   Data           4  stm32f10x_rcc.o(.data)
    APBAHBPrescTable                         0x20000004   Data          16  stm32f10x_rcc.o(.data)
    .data                                    0x20000014   Section       20  system_stm32f10x.o(.data)
    .data                                    0x20000028   Section       12  kernal.o(.data)
    g_u32TickCount                           0x20000028   Data           4  kernal.o(.data)
    g_u32Second                              0x2000002c   Data           4  kernal.o(.data)
    .data                                    0x20000034   Section       58  testdtu.o(.data)
    g_u8DtuRetry                             0x20000034   Data           1  testdtu.o(.data)
    g_bUpdate                                0x20000038   Data           4  testdtu.o(.data)
    g_bUpdateCmd                             0x2000003c   Data           4  testdtu.o(.data)
    g_bProtocolMode                          0x20000040   Data           4  testdtu.o(.data)
    g_bLastDtuWork                           0x20000044   Data           4  testdtu.o(.data)
    g_u32TimeOut                             0x20000048   Data           4  testdtu.o(.data)
    g_u32WriteOffset                         0x2000004c   Data           4  testdtu.o(.data)
    g_u32TimeInternal                        0x20000050   Data           4  testdtu.o(.data)
    g_u32AppAddress                          0x20000054   Data           4  testdtu.o(.data)
    g_u32HardEdition                         0x20000058   Data           4  testdtu.o(.data)
    g_u32SoftEdition                         0x2000005c   Data           4  testdtu.o(.data)
    g_szMachineType                          0x20000060   Data          14  testdtu.o(.data)
    .data                                    0x20000070   Section       28  serial.o(.data)
    g_u8LastValue                            0x20000070   Data           1  serial.o(.data)
    g_u32Uart1RevCount                       0x20000074   Data           4  serial.o(.data)
    g_u32Uart2RevCount                       0x20000078   Data           4  serial.o(.data)
    g_u32Uart3RevCount                       0x2000007c   Data           4  serial.o(.data)
    .data                                    0x2000008c   Section        4  serial.o(.data)
    .data                                    0x20000090   Section        4  timer.o(.data)
    g_u16gTIM2Delay                          0x20000090   Data           2  timer.o(.data)
    g_u16gTIM2Over                           0x20000092   Data           2  timer.o(.data)
    .data                                    0x20000094   Section        2  rtc.o(.data)
    daycnt                                   0x20000094   Data           2  rtc.o(.data)
    .bss                                     0x20000098   Section       10  rtc.o(.bss)
    .bss                                     0x200000a4   Section       96  libspace.o(.bss)
    HEAP                                     0x20000108   Section     5888  startup_stm32f10x_md.o(HEAP)
    Heap_Mem                                 0x20000108   Data        5888  startup_stm32f10x_md.o(HEAP)
    STACK                                    0x20001808   Section     3840  startup_stm32f10x_md.o(STACK)
    Stack_Mem                                0x20001808   Data        3840  startup_stm32f10x_md.o(STACK)
    __initial_sp                             0x20002708   Data           0  startup_stm32f10x_md.o(STACK)

    Global Symbols

    Symbol Name                              Value     Ov Type        Size  Object(Section)

    BuildAttributes$$THM_ISAv4$P$D$K$B$S$PE$A:L22UL41UL21$X:L11$S22US41US21$IEEE1$IW$USESV6$~STKCKD$USESV7$~SHL$OTIME$ROPI$IEEEJ$EBA8$UX$STANDARDLIB$REQ8$PRES8$EABIv2 0x00000000   Number         0  anon$$obj.o ABSOLUTE
    __ARM_use_no_argv                        0x00000000   Number         0  main.o ABSOLUTE
    _printf_flags                            0x00000000   Number         0  printf_stubs.o ABSOLUTE
    _printf_return_value                     0x00000000   Number         0  printf_stubs.o ABSOLUTE
    _printf_sizespec                         0x00000000   Number         0  printf_stubs.o ABSOLUTE
    _printf_widthprec                        0x00000000   Number         0  printf_stubs.o ABSOLUTE
    __ARM_exceptions_init                     - Undefined Weak Reference
    __alloca_initialize                       - Undefined Weak Reference
    __cpp_initialize__aeabi_                  - Undefined Weak Reference
    __cxa_finalize                            - Undefined Weak Reference
    __sigvec_lookup                           - Undefined Weak Reference
    __user_heap_extent                        - Undefined Weak Reference
    _atexit_init                              - Undefined Weak Reference
    _call_atexit_fns                          - Undefined Weak Reference
    _clock_init                               - Undefined Weak Reference
    _fp_trap_init                             - Undefined Weak Reference
    _fp_trap_shutdown                         - Undefined Weak Reference
    _get_lc_collate                           - Undefined Weak Reference
    _get_lc_ctype                             - Undefined Weak Reference
    _get_lc_monetary                          - Undefined Weak Reference
    _get_lc_time                              - Undefined Weak Reference
    _getenv_init                              - Undefined Weak Reference
    _handle_redirection                       - Undefined Weak Reference
    _initio                                   - Undefined Weak Reference
    _mutex_acquire                            - Undefined Weak Reference
    _mutex_free                               - Undefined Weak Reference
    _mutex_release                            - Undefined Weak Reference
    _printf_mbtowc                            - Undefined Weak Reference
    _printf_truncate_signed                   - Undefined Weak Reference
    _printf_truncate_unsigned                 - Undefined Weak Reference
    _rand_init                                - Undefined Weak Reference
    _signal_finish                            - Undefined Weak Reference
    _signal_init                              - Undefined Weak Reference
    _terminateio                              - Undefined Weak Reference
    __Vectors_Size                           0x000000ec   Number         0  startup_stm32f10x_md.o ABSOLUTE
    __Vectors                                0x08006000   Data           4  startup_stm32f10x_md.o(RESET)
    __Vectors_End                            0x080060ec   Data           0  startup_stm32f10x_md.o(RESET)
    __main                                   0x080060ed   Thumb Code     8  __main.o(!!!main)
    __scatterload                            0x080060f5   Thumb Code     0  __scatter.o(!!!scatter)
    __scatterload_rt2                        0x080060f5   Thumb Code    44  __scatter.o(!!!scatter)
    __scatterload_rt2_thumb_only             0x080060f5   Thumb Code     0  __scatter.o(!!!scatter)
    __scatterload_null                       0x08006103   Thumb Code     0  __scatter.o(!!!scatter)
    __scatterload_copy                       0x08006129   Thumb Code    26  __scatter_copy.o(!!handler_copy)
    __scatterload_zeroinit                   0x08006145   Thumb Code    28  __scatter_zi.o(!!handler_zi)
    _printf_f                                0x08006161   Thumb Code     0  _printf_f.o(.ARM.Collect$$_printf_percent$$00000003)
    _printf_percent                          0x08006161   Thumb Code     0  _printf_percent.o(.ARM.Collect$$_printf_percent$$00000000)
    _printf_d                                0x08006167   Thumb Code     0  _printf_d.o(.ARM.Collect$$_printf_percent$$00000009)
    _printf_x                                0x0800616d   Thumb Code     0  _printf_x.o(.ARM.Collect$$_printf_percent$$0000000C)
    _printf_s                                0x08006173   Thumb Code     0  _printf_s.o(.ARM.Collect$$_printf_percent$$00000014)
    _printf_percent_end                      0x08006179   Thumb Code     0  _printf_percent_end.o(.ARM.Collect$$_printf_percent$$00000017)
    __rt_lib_init                            0x0800617d   Thumb Code     0  libinit.o(.ARM.Collect$$libinit$$00000000)
    __rt_lib_init_fp_1                       0x0800617f   Thumb Code     0  libinit2.o(.ARM.Collect$$libinit$$00000002)
    __rt_lib_init_heap_2                     0x0800617f   Thumb Code     0  libinit2.o(.ARM.Collect$$libinit$$00000003)
    __rt_lib_init_heap_1                     0x08006187   Thumb Code     0  libinit2.o(.ARM.Collect$$libinit$$00000008)
    __rt_lib_init_lc_common                  0x08006187   Thumb Code     0  libinit2.o(.ARM.Collect$$libinit$$0000000D)
    __rt_lib_init_rand_1                     0x08006187   Thumb Code     0  libinit2.o(.ARM.Collect$$libinit$$0000000C)
    __rt_lib_init_user_alloc_1               0x08006187   Thumb Code     0  libinit2.o(.ARM.Collect$$libinit$$0000000A)
    __rt_lib_init_lc_collate_1               0x0800618d   Thumb Code     0  libinit2.o(.ARM.Collect$$libinit$$0000000F)
    __rt_lib_init_lc_ctype_1                 0x0800618d   Thumb Code     0  libinit2.o(.ARM.Collect$$libinit$$00000011)
    __rt_lib_init_lc_monetary_1              0x0800618d   Thumb Code     0  libinit2.o(.ARM.Collect$$libinit$$00000013)
    __rt_lib_init_lc_numeric_2               0x0800618d   Thumb Code     0  libinit2.o(.ARM.Collect$$libinit$$00000014)
    __rt_lib_init_alloca_1                   0x08006197   Thumb Code     0  libinit2.o(.ARM.Collect$$libinit$$0000002C)
    __rt_lib_init_argv_1                     0x08006197   Thumb Code     0  libinit2.o(.ARM.Collect$$libinit$$0000002A)
    __rt_lib_init_atexit_1                   0x08006197   Thumb Code     0  libinit2.o(.ARM.Collect$$libinit$$00000019)
    __rt_lib_init_clock_1                    0x08006197   Thumb Code     0  libinit2.o(.ARM.Collect$$libinit$$0000001F)
    __rt_lib_init_cpp_1                      0x08006197   Thumb Code     0  libinit2.o(.ARM.Collect$$libinit$$00000030)
    __rt_lib_init_exceptions_1               0x08006197   Thumb Code     0  libinit2.o(.ARM.Collect$$libinit$$0000002E)
    __rt_lib_init_fp_trap_1                  0x08006197   Thumb Code     0  libinit2.o(.ARM.Collect$$libinit$$0000001D)
    __rt_lib_init_getenv_1                   0x08006197   Thumb Code     0  libinit2.o(.ARM.Collect$$libinit$$00000021)
    __rt_lib_init_lc_numeric_1               0x08006197   Thumb Code     0  libinit2.o(.ARM.Collect$$libinit$$00000015)
    __rt_lib_init_lc_time_1                  0x08006197   Thumb Code     0  libinit2.o(.ARM.Collect$$libinit$$00000017)
    __rt_lib_init_return                     0x08006197   Thumb Code     0  libinit2.o(.ARM.Collect$$libinit$$00000031)
    __rt_lib_init_signal_1                   0x08006197   Thumb Code     0  libinit2.o(.ARM.Collect$$libinit$$0000001B)
    __rt_lib_init_stdio_1                    0x08006197   Thumb Code     0  libinit2.o(.ARM.Collect$$libinit$$00000023)
    __rt_lib_shutdown                        0x08006199   Thumb Code     0  libshutdown.o(.ARM.Collect$$libshutdown$$00000000)
    __rt_lib_shutdown_fp_trap_1              0x0800619b   Thumb Code     0  libshutdown2.o(.ARM.Collect$$libshutdown$$00000006)
    __rt_lib_shutdown_heap_1                 0x0800619b   Thumb Code     0  libshutdown2.o(.ARM.Collect$$libshutdown$$0000000E)
    __rt_lib_shutdown_return                 0x0800619b   Thumb Code     0  libshutdown2.o(.ARM.Collect$$libshutdown$$0000000F)
    __rt_lib_shutdown_signal_1               0x0800619b   Thumb Code     0  libshutdown2.o(.ARM.Collect$$libshutdown$$00000009)
    __rt_lib_shutdown_stdio_1                0x0800619b   Thumb Code     0  libshutdown2.o(.ARM.Collect$$libshutdown$$00000003)
    __rt_lib_shutdown_user_alloc_1           0x0800619b   Thumb Code     0  libshutdown2.o(.ARM.Collect$$libshutdown$$0000000B)
    __rt_entry                               0x0800619d   Thumb Code     0  rtentry.o(.ARM.Collect$$rtentry$$00000000)
    __rt_entry_presh_1                       0x0800619d   Thumb Code     0  rtentry2.o(.ARM.Collect$$rtentry$$00000002)
    __rt_entry_sh                            0x0800619d   Thumb Code     0  rtentry4.o(.ARM.Collect$$rtentry$$00000004)
    __rt_entry_li                            0x080061a3   Thumb Code     0  rtentry2.o(.ARM.Collect$$rtentry$$0000000A)
    __rt_entry_postsh_1                      0x080061a3   Thumb Code     0  rtentry2.o(.ARM.Collect$$rtentry$$00000009)
    __rt_entry_main                          0x080061a7   Thumb Code     0  rtentry2.o(.ARM.Collect$$rtentry$$0000000D)
    __rt_entry_postli_1                      0x080061a7   Thumb Code     0  rtentry2.o(.ARM.Collect$$rtentry$$0000000C)
    __rt_exit                                0x080061af   Thumb Code     0  rtexit.o(.ARM.Collect$$rtexit$$00000000)
    __rt_exit_ls                             0x080061b1   Thumb Code     0  rtexit2.o(.ARM.Collect$$rtexit$$00000003)
    __rt_exit_prels_1                        0x080061b1   Thumb Code     0  rtexit2.o(.ARM.Collect$$rtexit$$00000002)
    __rt_exit_exit                           0x080061b5   Thumb Code     0  rtexit2.o(.ARM.Collect$$rtexit$$00000004)
    Reset_Handler                            0x080061bd   Thumb Code     8  startup_stm32f10x_md.o(.text)
    _maybe_terminate_alloc                   0x080061bd   Thumb Code     0  maybetermalloc1.o(.emb_text)
    ADC1_2_IRQHandler                        0x080061d7   Thumb Code     0  startup_stm32f10x_md.o(.text)
    CAN1_RX1_IRQHandler                      0x080061d7   Thumb Code     0  startup_stm32f10x_md.o(.text)
    CAN1_SCE_IRQHandler                      0x080061d7   Thumb Code     0  startup_stm32f10x_md.o(.text)
    DMA1_Channel1_IRQHandler                 0x080061d7   Thumb Code     0  startup_stm32f10x_md.o(.text)
    DMA1_Channel2_IRQHandler                 0x080061d7   Thumb Code     0  startup_stm32f10x_md.o(.text)
    DMA1_Channel3_IRQHandler                 0x080061d7   Thumb Code     0  startup_stm32f10x_md.o(.text)
    DMA1_Channel4_IRQHandler                 0x080061d7   Thumb Code     0  startup_stm32f10x_md.o(.text)
    DMA1_Channel5_IRQHandler                 0x080061d7   Thumb Code     0  startup_stm32f10x_md.o(.text)
    DMA1_Channel6_IRQHandler                 0x080061d7   Thumb Code     0  startup_stm32f10x_md.o(.text)
    DMA1_Channel7_IRQHandler                 0x080061d7   Thumb Code     0  startup_stm32f10x_md.o(.text)
    EXTI0_IRQHandler                         0x080061d7   Thumb Code     0  startup_stm32f10x_md.o(.text)
    EXTI15_10_IRQHandler                     0x080061d7   Thumb Code     0  startup_stm32f10x_md.o(.text)
    EXTI1_IRQHandler                         0x080061d7   Thumb Code     0  startup_stm32f10x_md.o(.text)
    EXTI2_IRQHandler                         0x080061d7   Thumb Code     0  startup_stm32f10x_md.o(.text)
    EXTI3_IRQHandler                         0x080061d7   Thumb Code     0  startup_stm32f10x_md.o(.text)
    EXTI4_IRQHandler                         0x080061d7   Thumb Code     0  startup_stm32f10x_md.o(.text)
    EXTI9_5_IRQHandler                       0x080061d7   Thumb Code     0  startup_stm32f10x_md.o(.text)
    FLASH_IRQHandler                         0x080061d7   Thumb Code     0  startup_stm32f10x_md.o(.text)
    I2C1_ER_IRQHandler                       0x080061d7   Thumb Code     0  startup_stm32f10x_md.o(.text)
    I2C1_EV_IRQHandler                       0x080061d7   Thumb Code     0  startup_stm32f10x_md.o(.text)
    I2C2_ER_IRQHandler                       0x080061d7   Thumb Code     0  startup_stm32f10x_md.o(.text)
    I2C2_EV_IRQHandler                       0x080061d7   Thumb Code     0  startup_stm32f10x_md.o(.text)
    PVD_IRQHandler                           0x080061d7   Thumb Code     0  startup_stm32f10x_md.o(.text)
    RCC_IRQHandler                           0x080061d7   Thumb Code     0  startup_stm32f10x_md.o(.text)
    RTCAlarm_IRQHandler                      0x080061d7   Thumb Code     0  startup_stm32f10x_md.o(.text)
    SPI1_IRQHandler                          0x080061d7   Thumb Code     0  startup_stm32f10x_md.o(.text)
    SPI2_IRQHandler                          0x080061d7   Thumb Code     0  startup_stm32f10x_md.o(.text)
    TAMPER_IRQHandler                        0x080061d7   Thumb Code     0  startup_stm32f10x_md.o(.text)
    TIM1_BRK_IRQHandler                      0x080061d7   Thumb Code     0  startup_stm32f10x_md.o(.text)
    TIM1_CC_IRQHandler                       0x080061d7   Thumb Code     0  startup_stm32f10x_md.o(.text)
    TIM1_TRG_COM_IRQHandler                  0x080061d7   Thumb Code     0  startup_stm32f10x_md.o(.text)
    TIM1_UP_IRQHandler                       0x080061d7   Thumb Code     0  startup_stm32f10x_md.o(.text)
    TIM3_IRQHandler                          0x080061d7   Thumb Code     0  startup_stm32f10x_md.o(.text)
    TIM4_IRQHandler                          0x080061d7   Thumb Code     0  startup_stm32f10x_md.o(.text)
    USBWakeUp_IRQHandler                     0x080061d7   Thumb Code     0  startup_stm32f10x_md.o(.text)
    USB_HP_CAN1_TX_IRQHandler                0x080061d7   Thumb Code     0  startup_stm32f10x_md.o(.text)
    USB_LP_CAN1_RX0_IRQHandler               0x080061d7   Thumb Code     0  startup_stm32f10x_md.o(.text)
    WWDG_IRQHandler                          0x080061d7   Thumb Code     0  startup_stm32f10x_md.o(.text)
    __user_initial_stackheap                 0x080061d9   Thumb Code     0  startup_stm32f10x_md.o(.text)
    __use_no_semihosting                     0x080061fd   Thumb Code     2  use_no_semi_2.o(.text)
    malloc                                   0x080061ff   Thumb Code    94  h1_alloc.o(.text)
    free                                     0x0800625d   Thumb Code    78  h1_free.o(.text)
    __2printf                                0x080062ad   Thumb Code    20  noretval__2printf.o(.text)
    __2sprintf                               0x080062c5   Thumb Code    34  noretval__2sprintf.o(.text)
    _printf_pre_padding                      0x080062ed   Thumb Code    46  _printf_pad.o(.text)
    _printf_post_padding                     0x0800631b   Thumb Code    36  _printf_pad.o(.text)
    _printf_str                              0x0800633f   Thumb Code    82  _printf_str.o(.text)
    _printf_int_dec                          0x08006391   Thumb Code   102  _printf_dec.o(.text)
    _printf_int_hex                          0x08006409   Thumb Code    88  _printf_hex_int.o(.text)
    _printf_longlong_hex                     0x08006409   Thumb Code     0  _printf_hex_int.o(.text)
    __printf                                 0x08006465   Thumb Code   270  __printf_wp.o(.text)
    strstr                                   0x08006573   Thumb Code    36  strstr.o(.text)
    memcmp                                   0x08006597   Thumb Code    88  memcmp.o(.text)
    strlen                                   0x080065ef   Thumb Code    62  strlen.o(.text)
    __aeabi_memcpy                           0x0800662d   Thumb Code     0  rt_memcpy_v6.o(.text)
    __rt_memcpy                              0x0800662d   Thumb Code   138  rt_memcpy_v6.o(.text)
    _memcpy_lastbytes                        0x08006693   Thumb Code     0  rt_memcpy_v6.o(.text)
    __aeabi_memclr                           0x080066b7   Thumb Code     0  rt_memclr.o(.text)
    __rt_memclr                              0x080066b7   Thumb Code    68  rt_memclr.o(.text)
    _memset                                  0x080066bb   Thumb Code     0  rt_memclr.o(.text)
    __aeabi_memclr4                          0x080066fb   Thumb Code     0  rt_memclr_w.o(.text)
    __aeabi_memclr8                          0x080066fb   Thumb Code     0  rt_memclr_w.o(.text)
    __rt_memclr_w                            0x080066fb   Thumb Code    78  rt_memclr_w.o(.text)
    _memset_w                                0x080066ff   Thumb Code     0  rt_memclr_w.o(.text)
    __use_two_region_memory                  0x08006749   Thumb Code     2  heapauxi.o(.text)
    __rt_heap_escrow                         0x0800674b   Thumb Code     2  heapauxi.o(.text)
    __rt_heap_expand                         0x0800674d   Thumb Code     2  heapauxi.o(.text)
    __I$use$semihosting                      0x0800674f   Thumb Code     0  use_no_semi.o(.text)
    __use_no_semihosting_swi                 0x0800674f   Thumb Code     2  use_no_semi.o(.text)
    __rt_heap_descriptor                     0x08006751   Thumb Code     8  rt_heap_descriptor_intlibspace.o(.text)
    __use_no_heap                            0x08006759   Thumb Code     2  hguard.o(.text)
    __heap$guard                             0x0800675b   Thumb Code     2  hguard.o(.text)
    _terminate_user_alloc                    0x0800675d   Thumb Code     2  init_alloc.o(.text)
    _init_user_alloc                         0x0800675f   Thumb Code     2  init_alloc.o(.text)
    __Heap_Full                              0x08006761   Thumb Code    34  init_alloc.o(.text)
    __Heap_Broken                            0x08006783   Thumb Code     6  init_alloc.o(.text)
    _init_alloc                              0x08006789   Thumb Code    94  init_alloc.o(.text)
    __Heap_Initialize                        0x080067e7   Thumb Code    10  h1_init.o(.text)
    __Heap_DescSize                          0x080067f1   Thumb Code     4  h1_init.o(.text)
    __read_errno                             0x080067f5   Thumb Code    10  _rserrno.o(.text)
    __set_errno                              0x080067ff   Thumb Code    12  _rserrno.o(.text)
    _printf_int_common                       0x0800680b   Thumb Code   184  _printf_intcommon.o(.text)
    __lib_sel_fp_printf                      0x080068c3   Thumb Code     2  _printf_fp_dec.o(.text)
    _printf_fp_dec_real                      0x08006a6f   Thumb Code   628  _printf_fp_dec.o(.text)
    _printf_char_common                      0x08006cef   Thumb Code    32  _printf_char_common.o(.text)
    _sputc                                   0x08006d15   Thumb Code    10  _sputc.o(.text)
    _printf_cs_common                        0x08006d1f   Thumb Code    20  _printf_char.o(.text)
    _printf_char                             0x08006d33   Thumb Code    16  _printf_char.o(.text)
    _printf_string                           0x08006d43   Thumb Code     8  _printf_char.o(.text)
    _printf_char_file                        0x08006d4d   Thumb Code    32  _printf_char_file.o(.text)
    __aeabi_memcpy4                          0x08006d71   Thumb Code     0  rt_memcpy_w.o(.text)
    __aeabi_memcpy8                          0x08006d71   Thumb Code     0  rt_memcpy_w.o(.text)
    __rt_memcpy_w                            0x08006d71   Thumb Code   100  rt_memcpy_w.o(.text)
    _memcpy_lastbytes_aligned                0x08006db9   Thumb Code     0  rt_memcpy_w.o(.text)
    __user_libspace                          0x08006dd5   Thumb Code     8  libspace.o(.text)
    __user_perproc_libspace                  0x08006dd5   Thumb Code     0  libspace.o(.text)
    __user_perthread_libspace                0x08006dd5   Thumb Code     0  libspace.o(.text)
    __rt_locale                              0x08006ddd   Thumb Code     8  rt_locale_intlibspace.o(.text)
    __aeabi_errno_addr                       0x08006de5   Thumb Code     8  rt_errno_addr_intlibspace.o(.text)
    __errno$intlibspace                      0x08006de5   Thumb Code     0  rt_errno_addr_intlibspace.o(.text)
    __rt_errno_addr$intlibspace              0x08006de5   Thumb Code     0  rt_errno_addr_intlibspace.o(.text)
    __Heap_ProvideMemory                     0x08006ded   Thumb Code    52  h1_extend.o(.text)
    _ll_udiv10                               0x08006e21   Thumb Code   138  lludiv10.o(.text)
    _printf_fp_infnan                        0x08006ead   Thumb Code   112  _printf_fp_infnan.o(.text)
    _btod_etento                             0x08006f2d   Thumb Code   222  bigflt0.o(.text)
    ferror                                   0x08007011   Thumb Code     8  ferror.o(.text)
    __rt_SIGRTMEM                            0x08007019   Thumb Code    14  defsig_rtmem_outer.o(.text)
    __user_setup_stackheap                   0x08007027   Thumb Code    74  sys_stackheap_outer.o(.text)
    exit                                     0x08007071   Thumb Code    12  exit.o(.text)
    __sig_exit                               0x0800707d   Thumb Code    10  defsig_exit.o(.text)
    __rt_SIGRTMEM_inner                      0x08007089   Thumb Code    22  defsig_rtmem_inner.o(.text)
    strcmp                                   0x080070d9   Thumb Code   128  strcmpv7m.o(.text)
    __default_signal_display                 0x08007159   Thumb Code    50  defsig_general.o(.text)
    _btod_d2e                                0x0800718b   Thumb Code    62  btod.o(CL$$btod_d2e)
    _d2e_denorm_low                          0x080071c9   Thumb Code    70  btod.o(CL$$btod_d2e_denorm_low)
    _d2e_norm_op1                            0x0800720f   Thumb Code    96  btod.o(CL$$btod_d2e_norm_op1)
    __btod_div_common                        0x0800726f   Thumb Code   696  btod.o(CL$$btod_div_common)
    _e2e                                     0x080075a7   Thumb Code   198  btod.o(CL$$btod_e2e)
    _btod_ediv                               0x0800766d   Thumb Code    40  btod.o(CL$$btod_ediv)
    _btod_emul                               0x08007695   Thumb Code    40  btod.o(CL$$btod_emul)
    __btod_mult_common                       0x080076bd   Thumb Code   580  btod.o(CL$$btod_mult_common)
    ADC_Cmd                                  0x08007901   Thumb Code    20  stm32f10x_adc.o(i.ADC_Cmd)
    ADC_DeInit                               0x08007915   Thumb Code    56  stm32f10x_adc.o(i.ADC_DeInit)
    ADC_GetCalibrationStatus                 0x08007959   Thumb Code    14  stm32f10x_adc.o(i.ADC_GetCalibrationStatus)
    ADC_GetConversionValue                   0x08007967   Thumb Code     6  stm32f10x_adc.o(i.ADC_GetConversionValue)
    ADC_GetFlagStatus                        0x0800796d   Thumb Code    14  stm32f10x_adc.o(i.ADC_GetFlagStatus)
    ADC_GetResetCalibrationStatus            0x0800797b   Thumb Code    14  stm32f10x_adc.o(i.ADC_GetResetCalibrationStatus)
    ADC_Init                                 0x08007989   Thumb Code    62  stm32f10x_adc.o(i.ADC_Init)
    ADC_RegularChannelConfig                 0x080079d1   Thumb Code   116  stm32f10x_adc.o(i.ADC_RegularChannelConfig)
    ADC_ResetCalibration                     0x08007a45   Thumb Code    10  stm32f10x_adc.o(i.ADC_ResetCalibration)
    ADC_SoftwareStartConvCmd                 0x08007a4f   Thumb Code    20  stm32f10x_adc.o(i.ADC_SoftwareStartConvCmd)
    ADC_StartCalibration                     0x08007a63   Thumb Code    10  stm32f10x_adc.o(i.ADC_StartCalibration)
    ADS1248_Init                             0x08007a6d   Thumb Code   260  ads1248.o(i.ADS1248_Init)
    ADS1248_ReadByte                         0x08007b7d   Thumb Code    40  ads1248.o(i.ADS1248_ReadByte)
    ADS1248_ReadReg                          0x08007bad   Thumb Code    86  ads1248.o(i.ADS1248_ReadReg)
    ADS1248_WriteByte                        0x08007c0d   Thumb Code    40  ads1248.o(i.ADS1248_WriteByte)
    ADS1248_WriteReg                         0x08007c3d   Thumb Code    92  ads1248.o(i.ADS1248_WriteReg)
    ADS_DataReadOnce                         0x08007ca1   Thumb Code    36  ads1248.o(i.ADS_DataReadOnce)
    AdcInit                                  0x08007cc5   Thumb Code   126  adc.o(i.AdcInit)
    AddQueue                                 0x08007d4d   Thumb Code    58  protocol.o(i.AddQueue)
    BKP_DeInit                               0x08007d87   Thumb Code    18  stm32f10x_bkp.o(i.BKP_DeInit)
    BKP_ReadBackupRegister                   0x08007d99   Thumb Code    12  stm32f10x_bkp.o(i.BKP_ReadBackupRegister)
    BKP_WriteBackupRegister                  0x08007da9   Thumb Code    12  stm32f10x_bkp.o(i.BKP_WriteBackupRegister)
    BoardInit                                0x08007db9   Thumb Code    58  main.o(i.BoardInit)
    BusFault_Handler                         0x08007df9   Thumb Code     2  kernal.o(i.BusFault_Handler)
    CRC_CalcBlockCRC                         0x08007dfd   Thumb Code    24  stm32f10x_crc.o(i.CRC_CalcBlockCRC)
    CRC_ResetDR                              0x08007e19   Thumb Code     8  stm32f10x_crc.o(i.CRC_ResetDR)
    DS18B20_Check                            0x08007e25   Thumb Code    94  ds18b20.o(i.DS18B20_Check)
    DS18B20_Get_Temp                         0x08007e89   Thumb Code   132  ds18b20.o(i.DS18B20_Get_Temp)
    DS18B20_Init                             0x08007f11   Thumb Code    58  ds18b20.o(i.DS18B20_Init)
    DS18B20_Read_Byte                        0x08007f51   Thumb Code   138  ds18b20.o(i.DS18B20_Read_Byte)
    DS18B20_Rst                              0x08007fe1   Thumb Code    52  ds18b20.o(i.DS18B20_Rst)
    DS18B20_Start                            0x08008019   Thumb Code    26  ds18b20.o(i.DS18B20_Start)
    DS18B20_Write_Byte                       0x08008035   Thumb Code    90  ds18b20.o(i.DS18B20_Write_Byte)
    DebugMon_Handler                         0x08008095   Thumb Code     2  kernal.o(i.DebugMon_Handler)
    DelayMs                                  0x08008099   Thumb Code    22  kernal.o(i.DelayMs)
    DelayMs_Sft                              0x080080b5   Thumb Code    10  kernal.o(i.DelayMs_Sft)
    DelayUs_Sft                              0x080080bf   Thumb Code    20  kernal.o(i.DelayUs_Sft)
    DeleteQueue                              0x080080d3   Thumb Code    46  protocol.o(i.DeleteQueue)
    DetectOnline                             0x08008101   Thumb Code    24  dtu.o(i.DetectOnline)
    DtuInit                                  0x080084f9   Thumb Code    84  dtu.o(i.DtuInit)
    DtuOn                                    0x08008559   Thumb Code     8  dtu.o(i.DtuOn)
    DtuPwrOn                                 0x08008565   Thumb Code     8  dtu.o(i.DtuPwrOn)
    EnterException                           0x08008571   Thumb Code    34  kernal.o(i.EnterException)
    ExternFlashChipErase                     0x080085a9   Thumb Code    46  sst25vf064c.o(i.ExternFlashChipErase)
    ExternFlashPageProgram                   0x080085e1   Thumb Code   286  sst25vf064c.o(i.ExternFlashPageProgram)
    ExternFlash_Init                         0x08008709   Thumb Code    98  sst25vf064c.o(i.ExternFlash_Init)
    FLASH_ErasePage                          0x08008775   Thumb Code    56  stm32f10x_flash.o(i.FLASH_ErasePage)
    FLASH_GetBank1Status                     0x080087b1   Thumb Code    34  stm32f10x_flash.o(i.FLASH_GetBank1Status)
    FLASH_Lock                               0x080087d9   Thumb Code    12  stm32f10x_flash.o(i.FLASH_Lock)
    FLASH_PrefetchBufferCmd                  0x080087e9   Thumb Code    18  stm32f10x_flash.o(i.FLASH_PrefetchBufferCmd)
    FLASH_ProgramWord                        0x08008801   Thumb Code    76  stm32f10x_flash.o(i.FLASH_ProgramWord)
    FLASH_SetLatency                         0x08008851   Thumb Code    14  stm32f10x_flash.o(i.FLASH_SetLatency)
    FLASH_Unlock                             0x08008865   Thumb Code    12  stm32f10x_flash.o(i.FLASH_Unlock)
    FLASH_WaitForLastOperation               0x0800887d   Thumb Code    34  stm32f10x_flash.o(i.FLASH_WaitForLastOperation)
    FlashInit                                0x080088a1   Thumb Code    44  flash.o(i.FlashInit)
    FlashReadSTM32                           0x080088d1   Thumb Code    12  flash.o(i.FlashReadSTM32)
    GPIO_Init                                0x080088dd   Thumb Code   152  stm32f10x_gpio.o(i.GPIO_Init)
    GPIO_PinRemapConfig                      0x08008975   Thumb Code    82  stm32f10x_gpio.o(i.GPIO_PinRemapConfig)
    GPIO_ReadInputDataBit                    0x080089cd   Thumb Code    14  stm32f10x_gpio.o(i.GPIO_ReadInputDataBit)
    GPIO_ResetBits                           0x080089db   Thumb Code     4  stm32f10x_gpio.o(i.GPIO_ResetBits)
    GPIO_Set                                 0x080089df   Thumb Code   156  stm32f10x_gpio.o(i.GPIO_Set)
    GPIO_SetBits                             0x08008a7b   Thumb Code     4  stm32f10x_gpio.o(i.GPIO_SetBits)
    GetAdc                                   0x08008a81   Thumb Code    46  adc.o(i.GetAdc)
    GetQueueLength                           0x08008ab5   Thumb Code    30  protocol.o(i.GetQueueLength)
    GetTickCount                             0x08008ad5   Thumb Code     6  kernal.o(i.GetTickCount)
    GetUartReceiveTime                       0x08008ae1   Thumb Code    34  serial.o(i.GetUartReceiveTime)
    HardFault_Handler                        0x0800958d   Thumb Code     4  kernal.o(i.HardFault_Handler)
    HardGenCrc32                             0x08009591   Thumb Code    22  protocol.o(i.HardGenCrc32)
    Init                                     0x080095a7   Thumb Code    12  protocol.o(i.Init)
    LedInit                                  0x080095d9   Thumb Code    38  led.o(i.LedInit)
    LedOff                                   0x08009605   Thumb Code    10  led.o(i.LedOff)
    LedOn                                    0x08009615   Thumb Code    10  led.o(i.LedOn)
    MemManage_Handler                        0x08009625   Thumb Code     2  kernal.o(i.MemManage_Handler)
    NMI_Handler                              0x08009627   Thumb Code     2  kernal.o(i.NMI_Handler)
    NVIC_Init                                0x08009629   Thumb Code    90  misc.o(i.NVIC_Init)
    OsInit                                   0x080096c5   Thumb Code    60  kernal.o(i.OsInit)
    PT100TempProcess                         0x0800970d   Thumb Code   270  ads1248.o(i.PT100TempProcess)
    PWR_BackupAccessCmd                      0x0800982d   Thumb Code     6  stm32f10x_pwr.o(i.PWR_BackupAccessCmd)
    PendSV_Handler                           0x08009839   Thumb Code     2  kernal.o(i.PendSV_Handler)
    RCC_ADCCLKConfig                         0x080098a5   Thumb Code    14  stm32f10x_rcc.o(i.RCC_ADCCLKConfig)
    RCC_AHBPeriphClockCmd                    0x080098b9   Thumb Code    18  stm32f10x_rcc.o(i.RCC_AHBPeriphClockCmd)
    RCC_APB1PeriphClockCmd                   0x080098d1   Thumb Code    18  stm32f10x_rcc.o(i.RCC_APB1PeriphClockCmd)
    RCC_APB2PeriphClockCmd                   0x080098e9   Thumb Code    18  stm32f10x_rcc.o(i.RCC_APB2PeriphClockCmd)
    RCC_APB2PeriphResetCmd                   0x08009901   Thumb Code    18  stm32f10x_rcc.o(i.RCC_APB2PeriphResetCmd)
    RCC_BackupResetCmd                       0x08009919   Thumb Code     6  stm32f10x_rcc.o(i.RCC_BackupResetCmd)
    RCC_DeInit                               0x080099a1   Thumb Code    50  stm32f10x_rcc.o(i.RCC_DeInit)
    RCC_GetClocksFreq                        0x080099e1   Thumb Code   132  stm32f10x_rcc.o(i.RCC_GetClocksFreq)
    RCC_GetFlagStatus                        0x08009a75   Thumb Code    42  stm32f10x_rcc.o(i.RCC_GetFlagStatus)
    RCC_GetSYSCLKSource                      0x08009aa5   Thumb Code    10  stm32f10x_rcc.o(i.RCC_GetSYSCLKSource)
    RCC_HCLKConfig                           0x08009ab5   Thumb Code    14  stm32f10x_rcc.o(i.RCC_HCLKConfig)
    RCC_HSEConfig                            0x08009ac9   Thumb Code    48  stm32f10x_rcc.o(i.RCC_HSEConfig)
    RCC_LSEConfig                            0x08009afd   Thumb Code    28  stm32f10x_rcc.o(i.RCC_LSEConfig)
    RCC_PCLK1Config                          0x08009b1d   Thumb Code    14  stm32f10x_rcc.o(i.RCC_PCLK1Config)
    RCC_PCLK2Config                          0x08009b31   Thumb Code    16  stm32f10x_rcc.o(i.RCC_PCLK2Config)
    RCC_PLLCmd                               0x08009b45   Thumb Code     6  stm32f10x_rcc.o(i.RCC_PLLCmd)
    RCC_PLLConfig                            0x08009b51   Thumb Code    16  stm32f10x_rcc.o(i.RCC_PLLConfig)
    RCC_RTCCLKCmd                            0x08009b65   Thumb Code     6  stm32f10x_rcc.o(i.RCC_RTCCLKCmd)
    RCC_RTCCLKConfig                         0x08009b71   Thumb Code    10  stm32f10x_rcc.o(i.RCC_RTCCLKConfig)
    RCC_SYSCLKConfig                         0x08009b81   Thumb Code    14  stm32f10x_rcc.o(i.RCC_SYSCLKConfig)
    RCC_WaitForHSEStartUp                    0x08009b95   Thumb Code    44  stm32f10x_rcc.o(i.RCC_WaitForHSEStartUp)
    RTC_ClearITPendingBit                    0x08009bc1   Thumb Code    10  stm32f10x_rtc.o(i.RTC_ClearITPendingBit)
    RTC_EnterConfigMode                      0x08009bd1   Thumb Code    12  stm32f10x_rtc.o(i.RTC_EnterConfigMode)
    RTC_ExitConfigMode                       0x08009be1   Thumb Code    12  stm32f10x_rtc.o(i.RTC_ExitConfigMode)
    RTC_Get                                  0x08009bf1   Thumb Code   264  rtc.o(i.RTC_Get)
    RTC_GetITStatus                          0x08009d0d   Thumb Code    28  stm32f10x_rtc.o(i.RTC_GetITStatus)
    RTC_IRQHandler                           0x08009d2d   Thumb Code    42  rtc.o(i.RTC_IRQHandler)
    RTC_ITConfig                             0x08009d59   Thumb Code    18  stm32f10x_rtc.o(i.RTC_ITConfig)
    RTC_Init                                 0x08009d71   Thumb Code   220  rtc.o(i.RTC_Init)
    RTC_Set                                  0x08009e51   Thumb Code   190  rtc.o(i.RTC_Set)
    RTC_SetCounter                           0x08009f21   Thumb Code    26  stm32f10x_rtc.o(i.RTC_SetCounter)
    RTC_SetPrescaler                         0x08009f41   Thumb Code    28  stm32f10x_rtc.o(i.RTC_SetPrescaler)
    RTC_WaitForLastTask                      0x08009f61   Thumb Code    10  stm32f10x_rtc.o(i.RTC_WaitForLastTask)
    RTC_WaitForSynchro                       0x08009f71   Thumb Code    18  stm32f10x_rtc.o(i.RTC_WaitForSynchro)
    ReadUsartData                            0x08009fc1   Thumb Code    80  serial.o(i.ReadUsartData)
    SPI_CalculateCRC                         0x0800a021   Thumb Code    20  stm32f10x_spi.o(i.SPI_CalculateCRC)
    SPI_Cmd                                  0x0800a035   Thumb Code    20  stm32f10x_spi.o(i.SPI_Cmd)
    SPI_I2S_GetFlagStatus                    0x0800a049   Thumb Code    14  stm32f10x_spi.o(i.SPI_I2S_GetFlagStatus)
    SPI_I2S_ITConfig                         0x0800a057   Thumb Code    24  stm32f10x_spi.o(i.SPI_I2S_ITConfig)
    SPI_I2S_ReceiveData                      0x0800a06f   Thumb Code     4  stm32f10x_spi.o(i.SPI_I2S_ReceiveData)
    SPI_I2S_SendData                         0x0800a073   Thumb Code     4  stm32f10x_spi.o(i.SPI_I2S_SendData)
    SPI_Init                                 0x0800a077   Thumb Code    56  stm32f10x_spi.o(i.SPI_Init)
    SST25VF0_Init                            0x0800a0b1   Thumb Code   102  sst25vf064c.o(i.SST25VF0_Init)
    SVC_Handler                              0x0800a125   Thumb Code     2  kernal.o(i.SVC_Handler)
    SpiCreate                                0x0800a2ad   Thumb Code   482  spi.o(i.SpiCreate)
    SpiOpen                                  0x0800a4a1   Thumb Code    22  spi.o(i.SpiOpen)
    SpiReadWriteByte                         0x0800a4b7   Thumb Code    76  spi.o(i.SpiReadWriteByte)
    SysTick_Handler                          0x0800a505   Thumb Code    34  kernal.o(i.SysTick_Handler)
    SystemInit                               0x0800a52d   Thumb Code    62  system_stm32f10x.o(i.SystemInit)
    TIM2_IRQHandler                          0x0800a581   Thumb Code    68  timer.o(i.TIM2_IRQHandler)
    TIM_ClearITPendingBit                    0x0800a5c9   Thumb Code     6  stm32f10x_tim.o(i.TIM_ClearITPendingBit)
    TIM_Cmd                                  0x0800a5cf   Thumb Code    20  stm32f10x_tim.o(i.TIM_Cmd)
    TIM_GetITStatus                          0x0800a5e3   Thumb Code    24  stm32f10x_tim.o(i.TIM_GetITStatus)
    TestDtu                                  0x0800a5fd   Thumb Code   522  testdtu.o(i.TestDtu)
    Tsa5017Init                              0x0800a82d   Thumb Code    44  tsa5017.o(i.Tsa5017Init)
    Tsa5017_CH1                              0x0800a85d   Thumb Code    48  tsa5017.o(i.Tsa5017_CH1)
    Tsa5017_CH2                              0x0800a891   Thumb Code    48  tsa5017.o(i.Tsa5017_CH2)
    Tsa5017_CH3                              0x0800a8c5   Thumb Code    48  tsa5017.o(i.Tsa5017_CH3)
    Tsa5017_CH4                              0x0800a8f9   Thumb Code    48  tsa5017.o(i.Tsa5017_CH4)
    USART1_IRQHandler                        0x0800a92d   Thumb Code    46  serial.o(i.USART1_IRQHandler)
    USART2_IRQHandler                        0x0800a965   Thumb Code    46  serial.o(i.USART2_IRQHandler)
    USART3_IRQHandler                        0x0800a99d   Thumb Code    46  serial.o(i.USART3_IRQHandler)
    USART_Cmd                                0x0800a9d5   Thumb Code    20  stm32f10x_usart.o(i.USART_Cmd)
    USART_GetFlagStatus                      0x0800a9e9   Thumb Code    14  stm32f10x_usart.o(i.USART_GetFlagStatus)
    USART_GetITStatus                        0x0800a9f7   Thumb Code    62  stm32f10x_usart.o(i.USART_GetITStatus)
    USART_ITConfig                           0x0800aa35   Thumb Code    48  stm32f10x_usart.o(i.USART_ITConfig)
    USART_Init                               0x0800aa65   Thumb Code   176  stm32f10x_usart.o(i.USART_Init)
    USART_ReceiveData                        0x0800ab19   Thumb Code     8  stm32f10x_usart.o(i.USART_ReceiveData)
    USART_SendData                           0x0800ab21   Thumb Code     8  stm32f10x_usart.o(i.USART_SendData)
    UartCreate                               0x0800ab29   Thumb Code   392  serial.o(i.UartCreate)
    UartDeinit                               0x0800acc9   Thumb Code    64  serial.o(i.UartDeinit)
    UartInit                                 0x0800ad15   Thumb Code    18  serial.o(i.UartInit)
    UartOpen                                 0x0800ad27   Thumb Code     6  serial.o(i.UartOpen)
    UsageFault_Handler                       0x0800ad2d   Thumb Code     2  kernal.o(i.UsageFault_Handler)
    UsartSend                                0x0800ad2f   Thumb Code    46  serial.o(i.UsartSend)
    __ARM_fpclassify                         0x0800ad89   Thumb Code    40  fpclassify.o(i.__ARM_fpclassify)
    _is_digit                                0x0800adb1   Thumb Code    14  __printf_wp.o(i._is_digit)
    _sys_exit                                0x0800adbf   Thumb Code     2  serial.o(i._sys_exit)
    _ttywrch                                 0x0800adc1   Thumb Code     2  serial.o(i._ttywrch)
    fputc                                    0x0800adc5   Thumb Code    18  serial.o(i.fputc)
    main                                     0x0800addd   Thumb Code    18  main.o(i.main)
    sqrt                                     0x0800adef   Thumb Code    76  sqrt.o(i.sqrt)
    _get_lc_numeric                          0x0800ae3d   Thumb Code    44  lc_numeric_c.o(locale$$code)
    __aeabi_d2f                              0x0800ae69   Thumb Code     0  d2f.o(x$fpl$d2f)
    _d2f                                     0x0800ae69   Thumb Code    98  d2f.o(x$fpl$d2f)
    __aeabi_dadd                             0x0800aecd   Thumb Code     0  daddsub_clz.o(x$fpl$dadd)
    _dadd                                    0x0800aecd   Thumb Code   332  daddsub_clz.o(x$fpl$dadd)
    __fpl_dcheck_NaN1                        0x0800b01d   Thumb Code    10  dcheck1.o(x$fpl$dcheck1)
    __fpl_dcmp_Inf                           0x0800b02d   Thumb Code    24  dcmpi.o(x$fpl$dcmpinf)
    __aeabi_ddiv                             0x0800b045   Thumb Code     0  ddiv.o(x$fpl$ddiv)
    _ddiv                                    0x0800b045   Thumb Code   552  ddiv.o(x$fpl$ddiv)
    __aeabi_d2iz                             0x0800b2f5   Thumb Code     0  dfix.o(x$fpl$dfix)
    _dfix                                    0x0800b2f5   Thumb Code    94  dfix.o(x$fpl$dfix)
    __aeabi_i2d                              0x0800b353   Thumb Code     0  dflt_clz.o(x$fpl$dflt)
    _dflt                                    0x0800b353   Thumb Code    46  dflt_clz.o(x$fpl$dflt)
    __aeabi_ui2d                             0x0800b381   Thumb Code     0  dflt_clz.o(x$fpl$dfltu)
    _dfltu                                   0x0800b381   Thumb Code    38  dflt_clz.o(x$fpl$dfltu)
    __aeabi_cdcmple                          0x0800b3a9   Thumb Code     0  dleqf.o(x$fpl$dleqf)
    _dcmple                                  0x0800b3a9   Thumb Code   120  dleqf.o(x$fpl$dleqf)
    __fpl_dcmple_InfNaN                      0x0800b40b   Thumb Code     0  dleqf.o(x$fpl$dleqf)
    __aeabi_dmul                             0x0800b421   Thumb Code     0  dmul.o(x$fpl$dmul)
    _dmul                                    0x0800b421   Thumb Code   332  dmul.o(x$fpl$dmul)
    __fpl_dnaninf                            0x0800b575   Thumb Code   156  dnaninf.o(x$fpl$dnaninf)
    __fpl_dretinf                            0x0800b611   Thumb Code    12  dretinf.o(x$fpl$dretinf)
    __aeabi_cdrcmple                         0x0800b61d   Thumb Code     0  drleqf.o(x$fpl$drleqf)
    _drcmple                                 0x0800b61d   Thumb Code   108  drleqf.o(x$fpl$drleqf)
    __aeabi_drsub                            0x0800b689   Thumb Code     0  daddsub_clz.o(x$fpl$drsb)
    _drsb                                    0x0800b689   Thumb Code    22  daddsub_clz.o(x$fpl$drsb)
    _dsqrt                                   0x0800b6a1   Thumb Code   456  dsqrt_noumaal.o(x$fpl$dsqrt)
    __aeabi_dsub                             0x0800b86d   Thumb Code     0  daddsub_clz.o(x$fpl$dsub)
    _dsub                                    0x0800b86d   Thumb Code   464  daddsub_clz.o(x$fpl$dsub)
    __aeabi_f2d                              0x0800ba41   Thumb Code     0  f2d.o(x$fpl$f2d)
    _f2d                                     0x0800ba41   Thumb Code    86  f2d.o(x$fpl$f2d)
    __fpl_fcheck_NaN1                        0x0800ba99   Thumb Code     6  fcheck1.o(x$fpl$fcheck1)
    __fpl_fnaninf                            0x0800baa5   Thumb Code   140  fnaninf.o(x$fpl$fnaninf)
    __fpl_fretinf                            0x0800bb31   Thumb Code    10  fretinf.o(x$fpl$fretinf)
    _printf_fp_dec                           0x0800bb3b   Thumb Code     4  printf1.o(x$fpl$printf1)
    __fpl_return_NaN                         0x0800bb3f   Thumb Code   100  retnan.o(x$fpl$retnan)
    __ARM_scalbn                             0x0800bba3   Thumb Code    92  scalbn.o(x$fpl$scalbn)
    __ARM_scalbnf                            0x0800bbff   Thumb Code    76  scalbnf.o(x$fpl$scalbnf)
    __fpl_cmpreturn                          0x0800bc4b   Thumb Code    48  trapv.o(x$fpl$trapveneer)
    __I$use$fp                               0x0800bc7a   Number         0  usenofp.o(x$fpl$usenofp)
    Region$$Table$$Base                      0x0800bd50   Number         0  anon$$obj.o(Region$$Table)
    Region$$Table$$Limit                     0x0800bd70   Number         0  anon$$obj.o(Region$$Table)
    SystemCoreClock                          0x20000014   Data           4  system_stm32f10x.o(.data)
    AHBPrescTable                            0x20000018   Data          16  system_stm32f10x.o(.data)
    cSysInfo                                 0x20000030   Data           4  kernal.o(.data)
    pUart1QueueInfo                          0x20000080   Data           4  serial.o(.data)
    pUart2QueueInfo                          0x20000084   Data           4  serial.o(.data)
    pUart3QueueInfo                          0x20000088   Data           4  serial.o(.data)
    __stdout                                 0x2000008c   Data           4  serial.o(.data)
    g_CalendarInfo                           0x20000098   Data          10  rtc.o(.bss)
    __libspace_start                         0x200000a4   Data          96  libspace.o(.bss)
    __temporary_stack_top$libspace           0x20000104   Data           0  libspace.o(.bss)



==============================================================================

Memory Map of the image

  Image Entry point : 0x080060ed

  Load Region LR_IROM1 (Base: 0x08006000, Size: 0x00005e24, Max: 0x0000a000, ABSOLUTE)

    Execution Region ER_IROM1 (Base: 0x08006000, Size: 0x00005d8c, Max: 0x0000a000, ABSOLUTE)

    Base Addr    Size         Type   Attr      Idx    E Section Name        Object

    0x08006000   0x000000ec   Data   RO         3086    RESET               startup_stm32f10x_md.o
    0x080060ec   0x00000008   Code   RO         4555  * !!!main             c_w.l(__main.o)
    0x080060f4   0x00000034   Code   RO         4885    !!!scatter          c_w.l(__scatter.o)
    0x08006128   0x0000001a   Code   RO         4887    !!handler_copy      c_w.l(__scatter_copy.o)
    0x08006142   0x00000002   PAD
    0x08006144   0x0000001c   Code   RO         4889    !!handler_zi        c_w.l(__scatter_zi.o)
    0x08006160   0x00000000   Code   RO         4538    .ARM.Collect$$_printf_percent$$00000000  c_w.l(_printf_percent.o)
    0x08006160   0x00000006   Code   RO         4537    .ARM.Collect$$_printf_percent$$00000003  c_w.l(_printf_f.o)
    0x08006166   0x00000006   Code   RO         4536    .ARM.Collect$$_printf_percent$$00000009  c_w.l(_printf_d.o)
    0x0800616c   0x00000006   Code   RO         4535    .ARM.Collect$$_printf_percent$$0000000C  c_w.l(_printf_x.o)
    0x08006172   0x00000006   Code   RO         4534    .ARM.Collect$$_printf_percent$$00000014  c_w.l(_printf_s.o)
    0x08006178   0x00000004   Code   RO         4645    .ARM.Collect$$_printf_percent$$00000017  c_w.l(_printf_percent_end.o)
    0x0800617c   0x00000002   Code   RO         4827    .ARM.Collect$$libinit$$00000000  c_w.l(libinit.o)
    0x0800617e   0x00000000   Code   RO         4651    .ARM.Collect$$libinit$$00000002  c_w.l(libinit2.o)
    0x0800617e   0x00000008   Code   RO         4652    .ARM.Collect$$libinit$$00000003  c_w.l(libinit2.o)
    0x08006186   0x00000000   Code   RO         4654    .ARM.Collect$$libinit$$00000008  c_w.l(libinit2.o)
    0x08006186   0x00000000   Code   RO         4656    .ARM.Collect$$libinit$$0000000A  c_w.l(libinit2.o)
    0x08006186   0x00000000   Code   RO         4658    .ARM.Collect$$libinit$$0000000C  c_w.l(libinit2.o)
    0x08006186   0x00000006   Code   RO         4659    .ARM.Collect$$libinit$$0000000D  c_w.l(libinit2.o)
    0x0800618c   0x00000000   Code   RO         4661    .ARM.Collect$$libinit$$0000000F  c_w.l(libinit2.o)
    0x0800618c   0x00000000   Code   RO         4663    .ARM.Collect$$libinit$$00000011  c_w.l(libinit2.o)
    0x0800618c   0x00000000   Code   RO         4665    .ARM.Collect$$libinit$$00000013  c_w.l(libinit2.o)
    0x0800618c   0x0000000a   Code   RO         4666    .ARM.Collect$$libinit$$00000014  c_w.l(libinit2.o)
    0x08006196   0x00000000   Code   RO         4667    .ARM.Collect$$libinit$$00000015  c_w.l(libinit2.o)
    0x08006196   0x00000000   Code   RO         4669    .ARM.Collect$$libinit$$00000017  c_w.l(libinit2.o)
    0x08006196   0x00000000   Code   RO         4671    .ARM.Collect$$libinit$$00000019  c_w.l(libinit2.o)
    0x08006196   0x00000000   Code   RO         4673    .ARM.Collect$$libinit$$0000001B  c_w.l(libinit2.o)
    0x08006196   0x00000000   Code   RO         4675    .ARM.Collect$$libinit$$0000001D  c_w.l(libinit2.o)
    0x08006196   0x00000000   Code   RO         4677    .ARM.Collect$$libinit$$0000001F  c_w.l(libinit2.o)
    0x08006196   0x00000000   Code   RO         4679    .ARM.Collect$$libinit$$00000021  c_w.l(libinit2.o)
    0x08006196   0x00000000   Code   RO         4681    .ARM.Collect$$libinit$$00000023  c_w.l(libinit2.o)
    0x08006196   0x00000000   Code   RO         4685    .ARM.Collect$$libinit$$0000002A  c_w.l(libinit2.o)
    0x08006196   0x00000000   Code   RO         4687    .ARM.Collect$$libinit$$0000002C  c_w.l(libinit2.o)
    0x08006196   0x00000000   Code   RO         4689    .ARM.Collect$$libinit$$0000002E  c_w.l(libinit2.o)
    0x08006196   0x00000000   Code   RO         4691    .ARM.Collect$$libinit$$00000030  c_w.l(libinit2.o)
    0x08006196   0x00000002   Code   RO         4692    .ARM.Collect$$libinit$$00000031  c_w.l(libinit2.o)
    0x08006198   0x00000002   Code   RO         4882    .ARM.Collect$$libshutdown$$00000000  c_w.l(libshutdown.o)
    0x0800619a   0x00000000   Code   RO         4842    .ARM.Collect$$libshutdown$$00000003  c_w.l(libshutdown2.o)
    0x0800619a   0x00000000   Code   RO         4845    .ARM.Collect$$libshutdown$$00000006  c_w.l(libshutdown2.o)
    0x0800619a   0x00000000   Code   RO         4848    .ARM.Collect$$libshutdown$$00000009  c_w.l(libshutdown2.o)
    0x0800619a   0x00000000   Code   RO         4850    .ARM.Collect$$libshutdown$$0000000B  c_w.l(libshutdown2.o)
    0x0800619a   0x00000000   Code   RO         4853    .ARM.Collect$$libshutdown$$0000000E  c_w.l(libshutdown2.o)
    0x0800619a   0x00000002   Code   RO         4854    .ARM.Collect$$libshutdown$$0000000F  c_w.l(libshutdown2.o)
    0x0800619c   0x00000000   Code   RO         4605    .ARM.Collect$$rtentry$$00000000  c_w.l(rtentry.o)
    0x0800619c   0x00000000   Code   RO         4716    .ARM.Collect$$rtentry$$00000002  c_w.l(rtentry2.o)
    0x0800619c   0x00000006   Code   RO         4728    .ARM.Collect$$rtentry$$00000004  c_w.l(rtentry4.o)
    0x080061a2   0x00000000   Code   RO         4718    .ARM.Collect$$rtentry$$00000009  c_w.l(rtentry2.o)
    0x080061a2   0x00000004   Code   RO         4719    .ARM.Collect$$rtentry$$0000000A  c_w.l(rtentry2.o)
    0x080061a6   0x00000000   Code   RO         4721    .ARM.Collect$$rtentry$$0000000C  c_w.l(rtentry2.o)
    0x080061a6   0x00000008   Code   RO         4722    .ARM.Collect$$rtentry$$0000000D  c_w.l(rtentry2.o)
    0x080061ae   0x00000002   Code   RO         4830    .ARM.Collect$$rtexit$$00000000  c_w.l(rtexit.o)
    0x080061b0   0x00000000   Code   RO         4856    .ARM.Collect$$rtexit$$00000002  c_w.l(rtexit2.o)
    0x080061b0   0x00000004   Code   RO         4857    .ARM.Collect$$rtexit$$00000003  c_w.l(rtexit2.o)
    0x080061b4   0x00000006   Code   RO         4858    .ARM.Collect$$rtexit$$00000004  c_w.l(rtexit2.o)
    0x080061ba   0x00000002   PAD
    0x080061bc   0x00000000   Code   RO         4742    .emb_text           c_w.l(maybetermalloc1.o)
    0x080061bc   0x00000040   Code   RO         3087    .text               startup_stm32f10x_md.o
    0x080061fc   0x00000002   Code   RO         4413    .text               c_w.l(use_no_semi_2.o)
    0x080061fe   0x0000005e   Code   RO         4419    .text               c_w.l(h1_alloc.o)
    0x0800625c   0x0000004e   Code   RO         4421    .text               c_w.l(h1_free.o)
    0x080062aa   0x00000002   PAD
    0x080062ac   0x00000018   Code   RO         4481    .text               c_w.l(noretval__2printf.o)
    0x080062c4   0x00000028   Code   RO         4483    .text               c_w.l(noretval__2sprintf.o)
    0x080062ec   0x00000052   Code   RO         4487    .text               c_w.l(_printf_pad.o)
    0x0800633e   0x00000052   Code   RO         4489    .text               c_w.l(_printf_str.o)
    0x08006390   0x00000078   Code   RO         4491    .text               c_w.l(_printf_dec.o)
    0x08006408   0x0000005c   Code   RO         4496    .text               c_w.l(_printf_hex_int.o)
    0x08006464   0x0000010e   Code   RO         4522    .text               c_w.l(__printf_wp.o)
    0x08006572   0x00000024   Code   RO         4539    .text               c_w.l(strstr.o)
    0x08006596   0x00000058   Code   RO         4541    .text               c_w.l(memcmp.o)
    0x080065ee   0x0000003e   Code   RO         4543    .text               c_w.l(strlen.o)
    0x0800662c   0x0000008a   Code   RO         4545    .text               c_w.l(rt_memcpy_v6.o)
    0x080066b6   0x00000044   Code   RO         4549    .text               c_w.l(rt_memclr.o)
    0x080066fa   0x0000004e   Code   RO         4551    .text               c_w.l(rt_memclr_w.o)
    0x08006748   0x00000006   Code   RO         4553    .text               c_w.l(heapauxi.o)
    0x0800674e   0x00000002   Code   RO         4601    .text               c_w.l(use_no_semi.o)
    0x08006750   0x00000008   Code   RO         4609    .text               c_w.l(rt_heap_descriptor_intlibspace.o)
    0x08006758   0x00000004   Code   RO         4611    .text               c_w.l(hguard.o)
    0x0800675c   0x0000008a   Code   RO         4613    .text               c_w.l(init_alloc.o)
    0x080067e6   0x0000000e   Code   RO         4617    .text               c_w.l(h1_init.o)
    0x080067f4   0x00000016   Code   RO         4631    .text               c_w.l(_rserrno.o)
    0x0800680a   0x000000b8   Code   RO         4633    .text               c_w.l(_printf_intcommon.o)
    0x080068c2   0x00000420   Code   RO         4635    .text               c_w.l(_printf_fp_dec.o)
    0x08006ce2   0x00000002   PAD
    0x08006ce4   0x00000030   Code   RO         4637    .text               c_w.l(_printf_char_common.o)
    0x08006d14   0x0000000a   Code   RO         4639    .text               c_w.l(_sputc.o)
    0x08006d1e   0x0000002c   Code   RO         4641    .text               c_w.l(_printf_char.o)
    0x08006d4a   0x00000002   PAD
    0x08006d4c   0x00000024   Code   RO         4643    .text               c_w.l(_printf_char_file.o)
    0x08006d70   0x00000064   Code   RO         4646    .text               c_w.l(rt_memcpy_w.o)
    0x08006dd4   0x00000008   Code   RO         4712    .text               c_w.l(libspace.o)
    0x08006ddc   0x00000008   Code   RO         4733    .text               c_w.l(rt_locale_intlibspace.o)
    0x08006de4   0x00000008   Code   RO         4738    .text               c_w.l(rt_errno_addr_intlibspace.o)
    0x08006dec   0x00000034   Code   RO         4744    .text               c_w.l(h1_extend.o)
    0x08006e20   0x0000008a   Code   RO         4748    .text               c_w.l(lludiv10.o)
    0x08006eaa   0x00000002   PAD
    0x08006eac   0x00000080   Code   RO         4750    .text               c_w.l(_printf_fp_infnan.o)
    0x08006f2c   0x000000e4   Code   RO         4754    .text               c_w.l(bigflt0.o)
    0x08007010   0x00000008   Code   RO         4779    .text               c_w.l(ferror.o)
    0x08007018   0x0000000e   Code   RO         4786    .text               c_w.l(defsig_rtmem_outer.o)
    0x08007026   0x0000004a   Code   RO         4804    .text               c_w.l(sys_stackheap_outer.o)
    0x08007070   0x0000000c   Code   RO         4810    .text               c_w.l(exit.o)
    0x0800707c   0x0000000a   Code   RO         4812    .text               c_w.l(defsig_exit.o)
    0x08007086   0x00000002   PAD
    0x08007088   0x00000050   Code   RO         4814    .text               c_w.l(defsig_rtmem_inner.o)
    0x080070d8   0x00000080   Code   RO         4816    .text               c_w.l(strcmpv7m.o)
    0x08007158   0x00000032   Code   RO         4838    .text               c_w.l(defsig_general.o)
    0x0800718a   0x0000003e   Code   RO         4757    CL$$btod_d2e        c_w.l(btod.o)
    0x080071c8   0x00000046   Code   RO         4759    CL$$btod_d2e_denorm_low  c_w.l(btod.o)
    0x0800720e   0x00000060   Code   RO         4758    CL$$btod_d2e_norm_op1  c_w.l(btod.o)
    0x0800726e   0x00000338   Code   RO         4767    CL$$btod_div_common  c_w.l(btod.o)
    0x080075a6   0x000000c6   Code   RO         4764    CL$$btod_e2e        c_w.l(btod.o)
    0x0800766c   0x00000028   Code   RO         4761    CL$$btod_ediv       c_w.l(btod.o)
    0x08007694   0x00000028   Code   RO         4760    CL$$btod_emul       c_w.l(btod.o)
    0x080076bc   0x00000244   Code   RO         4766    CL$$btod_mult_common  c_w.l(btod.o)
    0x08007900   0x00000014   Code   RO          110    i.ADC_Cmd           stm32f10x_adc.o
    0x08007914   0x00000044   Code   RO          112    i.ADC_DeInit        stm32f10x_adc.o
    0x08007958   0x0000000e   Code   RO          118    i.ADC_GetCalibrationStatus  stm32f10x_adc.o
    0x08007966   0x00000006   Code   RO          119    i.ADC_GetConversionValue  stm32f10x_adc.o
    0x0800796c   0x0000000e   Code   RO          121    i.ADC_GetFlagStatus  stm32f10x_adc.o
    0x0800797a   0x0000000e   Code   RO          124    i.ADC_GetResetCalibrationStatus  stm32f10x_adc.o
    0x08007988   0x00000048   Code   RO          128    i.ADC_Init          stm32f10x_adc.o
    0x080079d0   0x00000074   Code   RO          132    i.ADC_RegularChannelConfig  stm32f10x_adc.o
    0x08007a44   0x0000000a   Code   RO          133    i.ADC_ResetCalibration  stm32f10x_adc.o
    0x08007a4e   0x00000014   Code   RO          135    i.ADC_SoftwareStartConvCmd  stm32f10x_adc.o
    0x08007a62   0x0000000a   Code   RO          137    i.ADC_StartCalibration  stm32f10x_adc.o
    0x08007a6c   0x00000110   Code   RO         3939    i.ADS1248_Init      ads1248.o
    0x08007b7c   0x00000030   Code   RO         3940    i.ADS1248_ReadByte  ads1248.o
    0x08007bac   0x00000060   Code   RO         3941    i.ADS1248_ReadReg   ads1248.o
    0x08007c0c   0x00000030   Code   RO         3943    i.ADS1248_WriteByte  ads1248.o
    0x08007c3c   0x00000064   Code   RO         3944    i.ADS1248_WriteReg  ads1248.o
    0x08007ca0   0x00000024   Code   RO         3946    i.ADS_DataReadOnce  ads1248.o
    0x08007cc4   0x00000088   Code   RO         4244    i.AdcInit           adc.o
    0x08007d4c   0x0000003a   Code   RO         3289    i.AddQueue          protocol.o
    0x08007d86   0x00000012   Code   RO          328    i.BKP_DeInit        stm32f10x_bkp.o
    0x08007d98   0x00000010   Code   RO          333    i.BKP_ReadBackupRegister  stm32f10x_bkp.o
    0x08007da8   0x00000010   Code   RO          337    i.BKP_WriteBackupRegister  stm32f10x_bkp.o
    0x08007db8   0x00000040   Code   RO         3241    i.BoardInit         main.o
    0x08007df8   0x00000002   Code   RO         3092    i.BusFault_Handler  kernal.o
    0x08007dfa   0x00000002   PAD
    0x08007dfc   0x0000001c   Code   RO          655    i.CRC_CalcBlockCRC  stm32f10x_crc.o
    0x08007e18   0x0000000c   Code   RO          659    i.CRC_ResetDR       stm32f10x_crc.o
    0x08007e24   0x00000064   Code   RO         4340    i.DS18B20_Check     ds18b20.o
    0x08007e88   0x00000088   Code   RO         4341    i.DS18B20_Get_Temp  ds18b20.o
    0x08007f10   0x00000040   Code   RO         4342    i.DS18B20_Init      ds18b20.o
    0x08007f50   0x00000090   Code   RO         4344    i.DS18B20_Read_Byte  ds18b20.o
    0x08007fe0   0x00000038   Code   RO         4345    i.DS18B20_Rst       ds18b20.o
    0x08008018   0x0000001a   Code   RO         4346    i.DS18B20_Start     ds18b20.o
    0x08008032   0x00000002   PAD
    0x08008034   0x00000060   Code   RO         4347    i.DS18B20_Write_Byte  ds18b20.o
    0x08008094   0x00000002   Code   RO         3093    i.DebugMon_Handler  kernal.o
    0x08008096   0x00000002   PAD
    0x08008098   0x0000001c   Code   RO         3094    i.DelayMs           kernal.o
    0x080080b4   0x0000000a   Code   RO         3095    i.DelayMs_Sft       kernal.o
    0x080080be   0x00000014   Code   RO         3096    i.DelayUs_Sft       kernal.o
    0x080080d2   0x0000002e   Code   RO         3290    i.DeleteQueue       protocol.o
    0x08008100   0x0000001c   Code   RO         4022    i.DetectOnline      dtu.o
    0x0800811c   0x000003dc   Code   RO         3452    i.DtuConfigure      testdtu.o
    0x080084f8   0x00000060   Code   RO         4023    i.DtuInit           dtu.o
    0x08008558   0x0000000c   Code   RO         4025    i.DtuOn             dtu.o
    0x08008564   0x0000000c   Code   RO         4027    i.DtuPwrOn          dtu.o
    0x08008570   0x00000038   Code   RO         3097    i.EnterException    kernal.o
    0x080085a8   0x00000038   Code   RO         4065    i.ExternFlashChipErase  sst25vf064c.o
    0x080085e0   0x00000128   Code   RO         4067    i.ExternFlashPageProgram  sst25vf064c.o
    0x08008708   0x0000006c   Code   RO         4069    i.ExternFlash_Init  sst25vf064c.o
    0x08008774   0x0000003c   Code   RO          933    i.FLASH_ErasePage   stm32f10x_flash.o
    0x080087b0   0x00000028   Code   RO          934    i.FLASH_GetBank1Status  stm32f10x_flash.o
    0x080087d8   0x00000010   Code   RO          943    i.FLASH_Lock        stm32f10x_flash.o
    0x080087e8   0x00000018   Code   RO          945    i.FLASH_PrefetchBufferCmd  stm32f10x_flash.o
    0x08008800   0x00000050   Code   RO          948    i.FLASH_ProgramWord  stm32f10x_flash.o
    0x08008850   0x00000014   Code   RO          950    i.FLASH_SetLatency  stm32f10x_flash.o
    0x08008864   0x00000018   Code   RO          951    i.FLASH_Unlock      stm32f10x_flash.o
    0x0800887c   0x00000022   Code   RO          955    i.FLASH_WaitForLastOperation  stm32f10x_flash.o
    0x0800889e   0x00000002   PAD
    0x080088a0   0x00000030   Code   RO         4270    i.FlashInit         flash.o
    0x080088d0   0x0000000c   Code   RO         4271    i.FlashReadSTM32    flash.o
    0x080088dc   0x00000098   Code   RO         1229    i.GPIO_Init         stm32f10x_gpio.o
    0x08008974   0x00000058   Code   RO         1231    i.GPIO_PinRemapConfig  stm32f10x_gpio.o
    0x080089cc   0x0000000e   Code   RO         1233    i.GPIO_ReadInputDataBit  stm32f10x_gpio.o
    0x080089da   0x00000004   Code   RO         1236    i.GPIO_ResetBits    stm32f10x_gpio.o
    0x080089de   0x0000009c   Code   RO         1237    i.GPIO_Set          stm32f10x_gpio.o
    0x08008a7a   0x00000004   Code   RO         1238    i.GPIO_SetBits      stm32f10x_gpio.o
    0x08008a7e   0x00000002   PAD
    0x08008a80   0x00000034   Code   RO         4245    i.GetAdc            adc.o
    0x08008ab4   0x0000001e   Code   RO         3291    i.GetQueueLength    protocol.o
    0x08008ad2   0x00000002   PAD
    0x08008ad4   0x0000000c   Code   RO         3099    i.GetTickCount      kernal.o
    0x08008ae0   0x00000034   Code   RO         3646    i.GetUartReceiveTime  serial.o
    0x08008b14   0x00000094   Code   RO         3453    i.HandleADCProc     testdtu.o
    0x08008ba8   0x0000010c   Code   RO         3454    i.HandleAds1248Proc  testdtu.o
    0x08008cb4   0x00000064   Code   RO         3455    i.HandleBoardInfo   testdtu.o
    0x08008d18   0x000004d8   Code   RO         3456    i.HandleCmdProc     testdtu.o
    0x080091f0   0x0000013c   Code   RO         3457    i.HandleDataPackage  testdtu.o
    0x0800932c   0x00000074   Code   RO         3458    i.HandleModeProc    testdtu.o
    0x080093a0   0x0000006c   Code   RO         3459    i.HandleRTCProc     testdtu.o
    0x0800940c   0x00000180   Code   RO         3460    i.HandleTemperatureProc  testdtu.o
    0x0800958c   0x00000004   Code   RO         3100    i.HardFault_Handler  kernal.o
    0x08009590   0x00000016   Code   RO         3292    i.HardGenCrc32      protocol.o
    0x080095a6   0x0000000c   Code   RO         3293    i.Init              protocol.o
    0x080095b2   0x00000026   Code   RO         4201    i.Is_Leap_Year      rtc.o
    0x080095d8   0x0000002c   Code   RO         3622    i.LedInit           led.o
    0x08009604   0x00000010   Code   RO         3623    i.LedOff            led.o
    0x08009614   0x00000010   Code   RO         3624    i.LedOn             led.o
    0x08009624   0x00000002   Code   RO         3101    i.MemManage_Handler  kernal.o
    0x08009626   0x00000002   Code   RO         3102    i.NMI_Handler       kernal.o
    0x08009628   0x00000064   Code   RO            1    i.NVIC_Init         misc.o
    0x0800968c   0x0000001c   Code   RO         3103    i.NVIC_SystemReset  kernal.o
    0x080096a8   0x0000001c   Code   RO         3461    i.NVIC_SystemReset  testdtu.o
    0x080096c4   0x00000048   Code   RO         3104    i.OsInit            kernal.o
    0x0800970c   0x00000120   Code   RO         3949    i.PT100TempProcess  ads1248.o
    0x0800982c   0x0000000c   Code   RO         1592    i.PWR_BackupAccessCmd  stm32f10x_pwr.o
    0x08009838   0x00000002   Code   RO         3105    i.PendSV_Handler    kernal.o
    0x0800983a   0x00000002   PAD
    0x0800983c   0x00000068   Code   RO         3950    i.Pt100             ads1248.o
    0x080098a4   0x00000014   Code   RO         1652    i.RCC_ADCCLKConfig  stm32f10x_rcc.o
    0x080098b8   0x00000018   Code   RO         1653    i.RCC_AHBPeriphClockCmd  stm32f10x_rcc.o
    0x080098d0   0x00000018   Code   RO         1654    i.RCC_APB1PeriphClockCmd  stm32f10x_rcc.o
    0x080098e8   0x00000018   Code   RO         1656    i.RCC_APB2PeriphClockCmd  stm32f10x_rcc.o
    0x08009900   0x00000018   Code   RO         1657    i.RCC_APB2PeriphResetCmd  stm32f10x_rcc.o
    0x08009918   0x0000000c   Code   RO         1659    i.RCC_BackupResetCmd  stm32f10x_rcc.o
    0x08009924   0x0000007c   Code   RO         3106    i.RCC_Configuration  kernal.o
    0x080099a0   0x00000040   Code   RO         1663    i.RCC_DeInit        stm32f10x_rcc.o
    0x080099e0   0x00000094   Code   RO         1664    i.RCC_GetClocksFreq  stm32f10x_rcc.o
    0x08009a74   0x00000030   Code   RO         1665    i.RCC_GetFlagStatus  stm32f10x_rcc.o
    0x08009aa4   0x00000010   Code   RO         1667    i.RCC_GetSYSCLKSource  stm32f10x_rcc.o
    0x08009ab4   0x00000014   Code   RO         1668    i.RCC_HCLKConfig    stm32f10x_rcc.o
    0x08009ac8   0x00000034   Code   RO         1669    i.RCC_HSEConfig     stm32f10x_rcc.o
    0x08009afc   0x00000020   Code   RO         1672    i.RCC_LSEConfig     stm32f10x_rcc.o
    0x08009b1c   0x00000014   Code   RO         1675    i.RCC_PCLK1Config   stm32f10x_rcc.o
    0x08009b30   0x00000014   Code   RO         1676    i.RCC_PCLK2Config   stm32f10x_rcc.o
    0x08009b44   0x0000000c   Code   RO         1677    i.RCC_PLLCmd        stm32f10x_rcc.o
    0x08009b50   0x00000014   Code   RO         1678    i.RCC_PLLConfig     stm32f10x_rcc.o
    0x08009b64   0x0000000c   Code   RO         1679    i.RCC_RTCCLKCmd     stm32f10x_rcc.o
    0x08009b70   0x00000010   Code   RO         1680    i.RCC_RTCCLKConfig  stm32f10x_rcc.o
    0x08009b80   0x00000014   Code   RO         1681    i.RCC_SYSCLKConfig  stm32f10x_rcc.o
    0x08009b94   0x0000002c   Code   RO         1683    i.RCC_WaitForHSEStartUp  stm32f10x_rcc.o
    0x08009bc0   0x00000010   Code   RO         1853    i.RTC_ClearITPendingBit  stm32f10x_rtc.o
    0x08009bd0   0x00000010   Code   RO         1854    i.RTC_EnterConfigMode  stm32f10x_rtc.o
    0x08009be0   0x00000010   Code   RO         1855    i.RTC_ExitConfigMode  stm32f10x_rtc.o
    0x08009bf0   0x0000011c   Code   RO         4202    i.RTC_Get           rtc.o
    0x08009d0c   0x00000020   Code   RO         1859    i.RTC_GetITStatus   stm32f10x_rtc.o
    0x08009d2c   0x0000002a   Code   RO         4203    i.RTC_IRQHandler    rtc.o
    0x08009d56   0x00000002   PAD
    0x08009d58   0x00000018   Code   RO         1860    i.RTC_ITConfig      stm32f10x_rtc.o
    0x08009d70   0x000000e0   Code   RO         4204    i.RTC_Init          rtc.o
    0x08009e50   0x000000d0   Code   RO         4205    i.RTC_Set           rtc.o
    0x08009f20   0x00000020   Code   RO         1862    i.RTC_SetCounter    stm32f10x_rtc.o
    0x08009f40   0x00000020   Code   RO         1863    i.RTC_SetPrescaler  stm32f10x_rtc.o
    0x08009f60   0x00000010   Code   RO         1864    i.RTC_WaitForLastTask  stm32f10x_rtc.o
    0x08009f70   0x00000018   Code   RO         1865    i.RTC_WaitForSynchro  stm32f10x_rtc.o
    0x08009f88   0x00000038   Code   RO         4076    i.ReadStatusRegister  sst25vf064c.o
    0x08009fc0   0x00000060   Code   RO         3647    i.ReadUsartData     serial.o
    0x0800a020   0x00000014   Code   RO         2134    i.SPI_CalculateCRC  stm32f10x_spi.o
    0x0800a034   0x00000014   Code   RO         2135    i.SPI_Cmd           stm32f10x_spi.o
    0x0800a048   0x0000000e   Code   RO         2143    i.SPI_I2S_GetFlagStatus  stm32f10x_spi.o
    0x0800a056   0x00000018   Code   RO         2145    i.SPI_I2S_ITConfig  stm32f10x_spi.o
    0x0800a06e   0x00000004   Code   RO         2146    i.SPI_I2S_ReceiveData  stm32f10x_spi.o
    0x0800a072   0x00000004   Code   RO         2147    i.SPI_I2S_SendData  stm32f10x_spi.o
    0x0800a076   0x00000038   Code   RO         2148    i.SPI_Init          stm32f10x_spi.o
    0x0800a0ae   0x00000002   PAD
    0x0800a0b0   0x00000074   Code   RO         4077    i.SST25VF0_Init     sst25vf064c.o
    0x0800a124   0x00000002   Code   RO         3107    i.SVC_Handler       kernal.o
    0x0800a126   0x00000002   PAD
    0x0800a128   0x000000e0   Code   RO         3462    i.SendAndWaitDtuDataProc  testdtu.o
    0x0800a208   0x000000a4   Code   RO         3055    i.SetSysClockTo36   system_stm32f10x.o
    0x0800a2ac   0x000001f4   Code   RO         3760    i.SpiCreate         spi.o
    0x0800a4a0   0x00000016   Code   RO         3761    i.SpiOpen           spi.o
    0x0800a4b6   0x0000004c   Code   RO         3762    i.SpiReadWriteByte  spi.o
    0x0800a502   0x00000002   PAD
    0x0800a504   0x00000028   Code   RO         3109    i.SysTick_Handler   kernal.o
    0x0800a52c   0x00000054   Code   RO         3057    i.SystemInit        system_stm32f10x.o
    0x0800a580   0x00000048   Code   RO         3797    i.TIM2_IRQHandler   timer.o
    0x0800a5c8   0x00000006   Code   RO         2283    i.TIM_ClearITPendingBit  stm32f10x_tim.o
    0x0800a5ce   0x00000014   Code   RO         2288    i.TIM_Cmd           stm32f10x_tim.o
    0x0800a5e2   0x00000018   Code   RO         2309    i.TIM_GetITStatus   stm32f10x_tim.o
    0x0800a5fa   0x00000002   PAD
    0x0800a5fc   0x00000230   Code   RO         3463    i.TestDtu           testdtu.o
    0x0800a82c   0x00000030   Code   RO         3899    i.Tsa5017Init       tsa5017.o
    0x0800a85c   0x00000034   Code   RO         3900    i.Tsa5017_CH1       tsa5017.o
    0x0800a890   0x00000034   Code   RO         3901    i.Tsa5017_CH2       tsa5017.o
    0x0800a8c4   0x00000034   Code   RO         3902    i.Tsa5017_CH3       tsa5017.o
    0x0800a8f8   0x00000034   Code   RO         3903    i.Tsa5017_CH4       tsa5017.o
    0x0800a92c   0x00000038   Code   RO         3650    i.USART1_IRQHandler  serial.o
    0x0800a964   0x00000038   Code   RO         3651    i.USART2_IRQHandler  serial.o
    0x0800a99c   0x00000038   Code   RO         3652    i.USART3_IRQHandler  serial.o
    0x0800a9d4   0x00000014   Code   RO         2811    i.USART_Cmd         stm32f10x_usart.o
    0x0800a9e8   0x0000000e   Code   RO         2814    i.USART_GetFlagStatus  stm32f10x_usart.o
    0x0800a9f6   0x0000003e   Code   RO         2815    i.USART_GetITStatus  stm32f10x_usart.o
    0x0800aa34   0x00000030   Code   RO         2817    i.USART_ITConfig    stm32f10x_usart.o
    0x0800aa64   0x000000b4   Code   RO         2818    i.USART_Init        stm32f10x_usart.o
    0x0800ab18   0x00000008   Code   RO         2825    i.USART_ReceiveData  stm32f10x_usart.o
    0x0800ab20   0x00000008   Code   RO         2828    i.USART_SendData    stm32f10x_usart.o
    0x0800ab28   0x000001a0   Code   RO         3654    i.UartCreate        serial.o
    0x0800acc8   0x0000004c   Code   RO         3655    i.UartDeinit        serial.o
    0x0800ad14   0x00000012   Code   RO         3656    i.UartInit          serial.o
    0x0800ad26   0x00000006   Code   RO         3657    i.UartOpen          serial.o
    0x0800ad2c   0x00000002   Code   RO         3110    i.UsageFault_Handler  kernal.o
    0x0800ad2e   0x0000002e   Code   RO         3658    i.UsartSend         serial.o
    0x0800ad5c   0x0000002c   Code   RO         4078    i.WREN              sst25vf064c.o
    0x0800ad88   0x00000028   Code   RO         4801    i.__ARM_fpclassify  m_ws.l(fpclassify.o)
    0x0800adb0   0x0000000e   Code   RO         4524    i._is_digit         c_w.l(__printf_wp.o)
    0x0800adbe   0x00000002   Code   RO         3659    i._sys_exit         serial.o
    0x0800adc0   0x00000002   Code   RO         3660    i._ttywrch          serial.o
    0x0800adc2   0x00000002   PAD
    0x0800adc4   0x00000018   Code   RO         3661    i.fputc             serial.o
    0x0800addc   0x00000012   Code   RO         3242    i.main              main.o
    0x0800adee   0x0000004c   Code   RO         4594    i.sqrt              m_ws.l(sqrt.o)
    0x0800ae3a   0x00000002   PAD
    0x0800ae3c   0x0000002c   Code   RO         4784    locale$$code        c_w.l(lc_numeric_c.o)
    0x0800ae68   0x00000062   Code   RO         4557    x$fpl$d2f           fz_ws.l(d2f.o)
    0x0800aeca   0x00000002   PAD
    0x0800aecc   0x00000150   Code   RO         4559    x$fpl$dadd          fz_ws.l(daddsub_clz.o)
    0x0800b01c   0x00000010   Code   RO         4693    x$fpl$dcheck1       fz_ws.l(dcheck1.o)
    0x0800b02c   0x00000018   Code   RO         4695    x$fpl$dcmpinf       fz_ws.l(dcmpi.o)
    0x0800b044   0x000002b0   Code   RO         4566    x$fpl$ddiv          fz_ws.l(ddiv.o)
    0x0800b2f4   0x0000005e   Code   RO         4569    x$fpl$dfix          fz_ws.l(dfix.o)
    0x0800b352   0x0000002e   Code   RO         4574    x$fpl$dflt          fz_ws.l(dflt_clz.o)
    0x0800b380   0x00000026   Code   RO         4573    x$fpl$dfltu         fz_ws.l(dflt_clz.o)
    0x0800b3a6   0x00000002   PAD
    0x0800b3a8   0x00000078   Code   RO         4579    x$fpl$dleqf         fz_ws.l(dleqf.o)
    0x0800b420   0x00000154   Code   RO         4581    x$fpl$dmul          fz_ws.l(dmul.o)
    0x0800b574   0x0000009c   Code   RO         4697    x$fpl$dnaninf       fz_ws.l(dnaninf.o)
    0x0800b610   0x0000000c   Code   RO         4699    x$fpl$dretinf       fz_ws.l(dretinf.o)
    0x0800b61c   0x0000006c   Code   RO         4583    x$fpl$drleqf        fz_ws.l(drleqf.o)
    0x0800b688   0x00000016   Code   RO         4560    x$fpl$drsb          fz_ws.l(daddsub_clz.o)
    0x0800b69e   0x00000002   PAD
    0x0800b6a0   0x000001cc   Code   RO         4701    x$fpl$dsqrt         fz_ws.l(dsqrt_noumaal.o)
    0x0800b86c   0x000001d4   Code   RO         4561    x$fpl$dsub          fz_ws.l(daddsub_clz.o)
    0x0800ba40   0x00000056   Code   RO         4585    x$fpl$f2d           fz_ws.l(f2d.o)
    0x0800ba96   0x00000002   PAD
    0x0800ba98   0x0000000c   Code   RO         4703    x$fpl$fcheck1       fz_ws.l(fcheck1.o)
    0x0800baa4   0x0000008c   Code   RO         4705    x$fpl$fnaninf       fz_ws.l(fnaninf.o)
    0x0800bb30   0x0000000a   Code   RO         4707    x$fpl$fretinf       fz_ws.l(fretinf.o)
    0x0800bb3a   0x00000004   Code   RO         4587    x$fpl$printf1       fz_ws.l(printf1.o)
    0x0800bb3e   0x00000064   Code   RO         4799    x$fpl$retnan        fz_ws.l(retnan.o)
    0x0800bba2   0x0000005c   Code   RO         4589    x$fpl$scalbn        fz_ws.l(scalbn.o)
    0x0800bbfe   0x0000004c   Code   RO         4591    x$fpl$scalbnf       fz_ws.l(scalbnf.o)
    0x0800bc4a   0x00000030   Code   RO         4828    x$fpl$trapveneer    fz_ws.l(trapv.o)
    0x0800bc7a   0x00000000   Code   RO         4709    x$fpl$usenofp       fz_ws.l(usenofp.o)
    0x0800bc7a   0x00000018   Data   RO         4207    .constdata          rtc.o
    0x0800bc92   0x00000028   Data   RO         4497    .constdata          c_w.l(_printf_hex_int.o)
    0x0800bcba   0x00000002   PAD
    0x0800bcbc   0x00000094   Data   RO         4755    .constdata          c_w.l(bigflt0.o)
    0x0800bd50   0x00000020   Data   RO         4883    Region$$Table       anon$$obj.o
    0x0800bd70   0x0000001c   Data   RO         4783    locale$$data        c_w.l(lc_numeric_c.o)


    Execution Region RW_IRAM1 (Base: 0x20000000, Size: 0x00002708, Max: 0x00002800, ABSOLUTE)

    Base Addr    Size         Type   Attr      Idx    E Section Name        Object

    0x20000000   0x00000014   Data   RW         1684    .data               stm32f10x_rcc.o
    0x20000014   0x00000014   Data   RW         3058    .data               system_stm32f10x.o
    0x20000028   0x0000000c   Data   RW         3111    .data               kernal.o
    0x20000034   0x0000003a   Data   RW         3464    .data               testdtu.o
    0x2000006e   0x00000002   PAD
    0x20000070   0x0000001c   Data   RW         3662    .data               serial.o
    0x2000008c   0x00000004   Data   RW         3663    .data               serial.o
    0x20000090   0x00000004   Data   RW         3801    .data               timer.o
    0x20000094   0x00000002   Data   RW         4208    .data               rtc.o
    0x20000096   0x00000002   PAD
    0x20000098   0x0000000a   Zero   RW         4206    .bss                rtc.o
    0x200000a2   0x00000002   PAD
    0x200000a4   0x00000060   Zero   RW         4713    .bss                c_w.l(libspace.o)
    0x20000104   0x00000004   PAD
    0x20000108   0x00001700   Zero   RW         3085    HEAP                startup_stm32f10x_md.o
    0x20001808   0x00000f00   Zero   RW         3084    STACK               startup_stm32f10x_md.o


==============================================================================

Image component sizes


      Code (inc. data)   RO Data    RW Data    ZI Data      Debug   Object Name

       188         16          0          0          0       1023   adc.o
       992        100          0          0          0       6587   ads1248.o
         0          0          0          0          0         32   core_cm3.o
       622         32          0          0          0       4061   ds18b20.o
       148         24          0          0          0       2138   dtu.o
        60          4          0          0          0       1253   flash.o
       408         60          0         12          0      28317   kernal.o
        76         18          0          0          0       1159   led.o
        82          6          0          0          0       1743   main.o
       100         10          0          0          0     273936   misc.o
       168          0          0          0          0       2656   protocol.o
       796         42         24          2         10       4237   rtc.o
       906        106          0         32          0      10138   serial.o
       598         18          0          0          0       3205   spi.o
       676         60          0          0          0       4203   sst25vf064c.o
        64         26        236          0       9728        760   startup_stm32f10x_md.o
       364         22          0          0          0       7434   stm32f10x_adc.o
        50          8          0          0          0       2368   stm32f10x_bkp.o
        40          8          0          0          0       1213   stm32f10x_crc.o
       298         42          0          0          0       5612   stm32f10x_flash.o
       418          6          0          0          0       4461   stm32f10x_gpio.o
        12          6          0          0          0        434   stm32f10x_pwr.o
       672        130          0         20          0      12374   stm32f10x_rcc.o
       208         46          0          0          0       4405   stm32f10x_rtc.o
       142          0          0          0          0       4276   stm32f10x_spi.o
        50          0          0          0          0       2739   stm32f10x_tim.o
       340          4          0          0          0       5229   stm32f10x_usart.o
       248         30          0         20          0       1673   system_stm32f10x.o
         0          0          0          0          0        846   testads1248.o
      4480       1292          0         58          0      25033   testdtu.o
        72          4          0          4          0        666   timer.o
       256         20          0          0          0       2286   tsa5017.o

    ----------------------------------------------------------------------
     13560       2140        292        152       9740     426497   Object Totals
         0          0         32          0          0          0   (incl. Generated)
        26          0          0          4          2          0   (incl. Padding)

    ----------------------------------------------------------------------

      Code (inc. data)   RO Data    RW Data    ZI Data      Debug   Library Member Name

         8          0          0          0          0         68   __main.o
       284          0          0          0          0        156   __printf_wp.o
        52          8          0          0          0          0   __scatter.o
        26          0          0          0          0          0   __scatter_copy.o
        28          0          0          0          0          0   __scatter_zi.o
        44          0          0          0          0        108   _printf_char.o
        48          6          0          0          0         96   _printf_char_common.o
        36          4          0          0          0         80   _printf_char_file.o
         6          0          0          0          0          0   _printf_d.o
       120         18          0          0          0         92   _printf_dec.o
         6          0          0          0          0          0   _printf_f.o
      1056          0          0          0          0        216   _printf_fp_dec.o
       128         16          0          0          0         84   _printf_fp_infnan.o
        92          4         40          0          0         88   _printf_hex_int.o
       184          0          0          0          0         88   _printf_intcommon.o
        82          0          0          0          0        108   _printf_pad.o
         0          0          0          0          0          0   _printf_percent.o
         4          0          0          0          0          0   _printf_percent_end.o
         6          0          0          0          0          0   _printf_s.o
        82          0          0          0          0         80   _printf_str.o
         6          0          0          0          0          0   _printf_x.o
        22          0          0          0          0        100   _rserrno.o
        10          0          0          0          0         68   _sputc.o
       228          6        148          0          0         96   bigflt0.o
      1910        128          0          0          0        672   btod.o
        10          0          0          0          0         68   defsig_exit.o
        50          0          0          0          0         88   defsig_general.o
        80         58          0          0          0         76   defsig_rtmem_inner.o
        14          0          0          0          0         80   defsig_rtmem_outer.o
        12          0          0          0          0         72   exit.o
         8          0          0          0          0         68   ferror.o
        94          0          0          0          0         80   h1_alloc.o
        52          0          0          0          0         68   h1_extend.o
        78          0          0          0          0         80   h1_free.o
        14          0          0          0          0         84   h1_init.o
         6          0          0          0          0        152   heapauxi.o
         4          0          0          0          0        136   hguard.o
       138          0          0          0          0        168   init_alloc.o
        44         10         28          0          0         76   lc_numeric_c.o
         2          0          0          0          0          0   libinit.o
        26          0          0          0          0          0   libinit2.o
         2          0          0          0          0          0   libshutdown.o
         2          0          0          0          0          0   libshutdown2.o
         8          4          0          0         96         68   libspace.o
       138          0          0          0          0         80   lludiv10.o
         0          0          0          0          0          0   maybetermalloc1.o
        88          0          0          0          0         76   memcmp.o
        24          4          0          0          0         84   noretval__2printf.o
        40          6          0          0          0         84   noretval__2sprintf.o
         8          4          0          0          0         68   rt_errno_addr_intlibspace.o
         8          4          0          0          0         68   rt_heap_descriptor_intlibspace.o
         8          4          0          0          0         68   rt_locale_intlibspace.o
        68          0          0          0          0         68   rt_memclr.o
        78          0          0          0          0         80   rt_memclr_w.o
       138          0          0          0          0         68   rt_memcpy_v6.o
       100          0          0          0          0         80   rt_memcpy_w.o
         0          0          0          0          0          0   rtentry.o
        12          0          0          0          0          0   rtentry2.o
         6          0          0          0          0          0   rtentry4.o
         2          0          0          0          0          0   rtexit.o
        10          0          0          0          0          0   rtexit2.o
       128          0          0          0          0         68   strcmpv7m.o
        62          0          0          0          0         76   strlen.o
        36          0          0          0          0         80   strstr.o
        74          0          0          0          0         80   sys_stackheap_outer.o
         2          0          0          0          0         68   use_no_semi.o
         2          0          0          0          0         68   use_no_semi_2.o
        98          4          0          0          0         92   d2f.o
       826         16          0          0          0        348   daddsub_clz.o
        16          4          0          0          0         68   dcheck1.o
        24          0          0          0          0         68   dcmpi.o
       688        140          0          0          0        208   ddiv.o
        94          4          0          0          0         92   dfix.o
        84          0          0          0          0        136   dflt_clz.o
       120          4          0          0          0         92   dleqf.o
       340         12          0          0          0        104   dmul.o
       156          4          0          0          0         92   dnaninf.o
        12          0          0          0          0         68   dretinf.o
       108          0          0          0          0         80   drleqf.o
       460         56          0          0          0        120   dsqrt_noumaal.o
        86          4          0          0          0         84   f2d.o
        12          4          0          0          0         68   fcheck1.o
       140          4          0          0          0         84   fnaninf.o
        10          0          0          0          0         68   fretinf.o
         4          0          0          0          0         68   printf1.o
       100          0          0          0          0         68   retnan.o
        92          0          0          0          0         68   scalbn.o
        76          0          0          0          0         68   scalbnf.o
        48          0          0          0          0         68   trapv.o
         0          0          0          0          0          0   usenofp.o
        40          0          0          0          0         68   fpclassify.o
        76          0          0          0          0         84   sqrt.o

    ----------------------------------------------------------------------
      9878        540        218          0        100       7192   Library Totals
        24          0          2          0          4          0   (incl. Padding)

    ----------------------------------------------------------------------

      Code (inc. data)   RO Data    RW Data    ZI Data      Debug   Library Name

      6144        284        216          0         96       4828   c_w.l
      3594        256          0          0          0       2212   fz_ws.l
       116          0          0          0          0        152   m_ws.l

    ----------------------------------------------------------------------
      9878        540        218          0        100       7192   Library Totals

    ----------------------------------------------------------------------

==============================================================================


      Code (inc. data)   RO Data    RW Data    ZI Data      Debug   

     23438       2680        510        152       9840     420481   Grand Totals
     23438       2680        510        152       9840     420481   ELF Image Totals
     23438       2680        510        152          0          0   ROM Totals

==============================================================================

    Total RO  Size (Code + RO Data)                23948 (  23.39kB)
    Total RW  Size (RW Data + ZI Data)              9992 (   9.76kB)
    Total ROM Size (Code + RO Data + RW Data)      24100 (  23.54kB)

==============================================================================

